
XPA30925.elf:     file format elf32-littlearm

Sections:
Idx Name          Size      VMA       LMA       File off  Algn
  0 MAGIC_WORD    00000030  60100000  60100000  00008000  2**4
                  CONTENTS, ALLOC, LOAD, READONLY, DATA
  1 APP_START     000000a8  60100100  60100100  00008100  2**2
                  CONTENTS, ALLOC, LOAD, READONLY, DATA
  2 PROGRAM       00007852  601001a8  601001a8  000081a8  2**2
                  CONTENTS, ALLOC, LOAD, READONLY, CODE
  3 .data         00000418  62000000  601079fc  00010000  2**4
                  CONTENTS, ALLOC, LOAD, DATA
  4 .bss          00002670  62000418  62000418  00010418  2**2
                  ALLOC
  5 .comment      000000a2  00000000  00000000  00010418  2**0
                  CONTENTS, READONLY
  6 .debug_line   000003ed  00000000  00000000  000104ba  2**0
                  CONTENTS, READONLY, DEBUGGING
  7 .debug_info   00000216  00000000  00000000  000108a7  2**0
                  CONTENTS, READONLY, DEBUGGING
  8 .debug_abbrev 00000060  00000000  00000000  00010abd  2**0
                  CONTENTS, READONLY, DEBUGGING
  9 .debug_aranges 000000a8  00000000  00000000  00010b20  2**3
                  CONTENTS, READONLY, DEBUGGING
Disassembly of section PROGRAM:

601001a8 <set_stopbits>:
601001a8:	b500      	push	{lr}
601001aa:	4b06      	ldr	r3, [pc, #24]	(601001c4 <PROGRAM+0x1c>)
601001ac:	681b      	ldr	r3, [r3, #0]
601001ae:	4a06      	ldr	r2, [pc, #24]	(601001c8 <PROGRAM+0x20>)
601001b0:	2b01      	cmp	r3, #1
601001b2:	d101      	bne	601001b8 <_eappstart+0x10>
601001b4:	4805      	ldr	r0, [pc, #20]	(601001cc <PROGRAM+0x24>)
601001b6:	e000      	b	601001ba <_eappstart+0x12>
601001b8:	4805      	ldr	r0, [pc, #20]	(601001d0 <PROGRAM+0x28>)
601001ba:	f983f001 	bl	601014c4 <PROGRAM+0x131c>
601001be:	bc01      	pop	{r0}
601001c0:	4700      	bx	r0
601001c2:	0000      	lsl	r0, r0, #0
601001c4:	2a7c      	cmp	r2, #124
601001c6:	6200      	str	r0, [r0, #32]
601001c8:	36b0      	add	r6, #176
601001ca:	6010      	str	r0, [r2, #0]
601001cc:	70ac      	strb	r4, [r5, #2]
601001ce:	6010      	str	r0, [r2, #0]
601001d0:	70b0      	strb	r0, [r6, #2]
601001d2:	6010      	str	r0, [r2, #0]

601001d4 <set_databits>:
601001d4:	b500      	push	{lr}
601001d6:	4b06      	ldr	r3, [pc, #24]	(601001f0 <PROGRAM+0x48>)
601001d8:	681b      	ldr	r3, [r3, #0]
601001da:	4a06      	ldr	r2, [pc, #24]	(601001f4 <PROGRAM+0x4c>)
601001dc:	2b07      	cmp	r3, #7
601001de:	d101      	bne	601001e4 <set_databits+0x10>
601001e0:	4805      	ldr	r0, [pc, #20]	(601001f8 <PROGRAM+0x50>)
601001e2:	e000      	b	601001e6 <set_databits+0x12>
601001e4:	4805      	ldr	r0, [pc, #20]	(601001fc <PROGRAM+0x54>)
601001e6:	f96df001 	bl	601014c4 <PROGRAM+0x131c>
601001ea:	bc01      	pop	{r0}
601001ec:	4700      	bx	r0
601001ee:	0000      	lsl	r0, r0, #0
601001f0:	2a68      	cmp	r2, #104
601001f2:	6200      	str	r0, [r0, #32]
601001f4:	36b0      	add	r6, #176
601001f6:	6010      	str	r0, [r2, #0]
601001f8:	70b4      	strb	r4, [r6, #2]
601001fa:	6010      	str	r0, [r2, #0]
601001fc:	70b8      	strb	r0, [r7, #2]
601001fe:	6010      	str	r0, [r2, #0]

60100200 <set_parity>:
60100200:	b500      	push	{lr}
60100202:	4b08      	ldr	r3, [pc, #32]	(60100224 <PROGRAM+0x7c>)
60100204:	681b      	ldr	r3, [r3, #0]
60100206:	2b02      	cmp	r3, #2
60100208:	d002      	beq	60100210 <set_parity+0x10>
6010020a:	2b03      	cmp	r3, #3
6010020c:	d104      	bne	60100218 <set_parity+0x18>
6010020e:	e001      	b	60100214 <set_parity+0x14>
60100210:	4805      	ldr	r0, [pc, #20]	(60100228 <PROGRAM+0x80>)
60100212:	e002      	b	6010021a <set_parity+0x1a>
60100214:	4805      	ldr	r0, [pc, #20]	(6010022c <PROGRAM+0x84>)
60100216:	e000      	b	6010021a <set_parity+0x1a>
60100218:	4805      	ldr	r0, [pc, #20]	(60100230 <PROGRAM+0x88>)
6010021a:	4b06      	ldr	r3, [pc, #24]	(60100234 <PROGRAM+0x8c>)
6010021c:	f953f001 	bl	601014c6 <PROGRAM+0x131e>
60100220:	bc01      	pop	{r0}
60100222:	4700      	bx	r0
60100224:	2a70      	cmp	r2, #112
60100226:	6200      	str	r0, [r0, #32]
60100228:	70bc      	strb	r4, [r7, #2]
6010022a:	6010      	str	r0, [r2, #0]
6010022c:	70c0      	strb	r0, [r0, #3]
6010022e:	6010      	str	r0, [r2, #0]
60100230:	70c4      	strb	r4, [r0, #3]
60100232:	6010      	str	r0, [r2, #0]
60100234:	36b0      	add	r6, #176
60100236:	6010      	str	r0, [r2, #0]

60100238 <set_baudrate>:
60100238:	b500      	push	{lr}
6010023a:	4b0f      	ldr	r3, [pc, #60]	(60100278 <PROGRAM+0xd0>)
6010023c:	681b      	ldr	r3, [r3, #0]
6010023e:	3b01      	sub	r3, #1
60100240:	2b06      	cmp	r3, #6
60100242:	d812      	bhi	6010026a <set_baudrate+0x32>
60100244:	4a0d      	ldr	r2, [pc, #52]	(6010027c <PROGRAM+0xd4>)
60100246:	009b      	lsl	r3, r3, #2
60100248:	589b      	ldr	r3, [r3, r2]
6010024a:	4a0d      	ldr	r2, [pc, #52]	(60100280 <PROGRAM+0xd8>)
6010024c:	469f      	mov	pc, r3
6010024e:	480d      	ldr	r0, [pc, #52]	(60100284 <PROGRAM+0xdc>)
60100250:	e000      	b	60100254 <set_baudrate+0x1c>
60100252:	480d      	ldr	r0, [pc, #52]	(60100288 <PROGRAM+0xe0>)
60100254:	f936f001 	bl	601014c4 <PROGRAM+0x131c>
60100258:	e00b      	b	60100272 <set_baudrate+0x3a>
6010025a:	480c      	ldr	r0, [pc, #48]	(6010028c <PROGRAM+0xe4>)
6010025c:	e7fa      	b	60100254 <set_baudrate+0x1c>
6010025e:	480c      	ldr	r0, [pc, #48]	(60100290 <PROGRAM+0xe8>)
60100260:	e7f8      	b	60100254 <set_baudrate+0x1c>
60100262:	480c      	ldr	r0, [pc, #48]	(60100294 <PROGRAM+0xec>)
60100264:	e7f6      	b	60100254 <set_baudrate+0x1c>
60100266:	480c      	ldr	r0, [pc, #48]	(60100298 <PROGRAM+0xf0>)
60100268:	e7f4      	b	60100254 <set_baudrate+0x1c>
6010026a:	480c      	ldr	r0, [pc, #48]	(6010029c <PROGRAM+0xf4>)
6010026c:	4b04      	ldr	r3, [pc, #16]	(60100280 <PROGRAM+0xd8>)
6010026e:	f92af001 	bl	601014c6 <PROGRAM+0x131e>
60100272:	bc01      	pop	{r0}
60100274:	4700      	bx	r0
60100276:	0000      	lsl	r0, r0, #0
60100278:	2a84      	cmp	r2, #132
6010027a:	6200      	str	r0, [r0, #32]
6010027c:	6900      	ldr	r0, [r0, #16]
6010027e:	6010      	str	r0, [r2, #0]
60100280:	36b0      	add	r6, #176
60100282:	6010      	str	r0, [r2, #0]
60100284:	70c8      	strb	r0, [r1, #3]
60100286:	6010      	str	r0, [r2, #0]
60100288:	70cc      	strb	r4, [r1, #3]
6010028a:	6010      	str	r0, [r2, #0]
6010028c:	70d0      	strb	r0, [r2, #3]
6010028e:	6010      	str	r0, [r2, #0]
60100290:	70d4      	strb	r4, [r2, #3]
60100292:	6010      	str	r0, [r2, #0]
60100294:	70d8      	strb	r0, [r3, #3]
60100296:	6010      	str	r0, [r2, #0]
60100298:	70dc      	strb	r4, [r3, #3]
6010029a:	6010      	str	r0, [r2, #0]
6010029c:	70e0      	strb	r0, [r4, #3]
6010029e:	6010      	str	r0, [r2, #0]

601002a0 <set_barcodes>:
601002a0:	b530      	push	{r4, r5, lr}
601002a2:	485d      	ldr	r0, [pc, #372]	(60100418 <PROGRAM+0x270>)
601002a4:	4d5d      	ldr	r5, [pc, #372]	(6010041c <PROGRAM+0x274>)
601002a6:	f910f001 	bl	601014ca <PROGRAM+0x1322>
601002aa:	4c5d      	ldr	r4, [pc, #372]	(60100420 <PROGRAM+0x278>)
601002ac:	6823      	ldr	r3, [r4, #0]
601002ae:	07da      	lsl	r2, r3, #31
601002b0:	d502      	bpl	601002b8 <set_barcodes+0x18>
601002b2:	485c      	ldr	r0, [pc, #368]	(60100424 <PROGRAM+0x27c>)
601002b4:	f909f001 	bl	601014ca <PROGRAM+0x1322>
601002b8:	6823      	ldr	r3, [r4, #0]
601002ba:	079a      	lsl	r2, r3, #30
601002bc:	d502      	bpl	601002c4 <set_barcodes+0x24>
601002be:	485a      	ldr	r0, [pc, #360]	(60100428 <PROGRAM+0x280>)
601002c0:	f903f001 	bl	601014ca <PROGRAM+0x1322>
601002c4:	6823      	ldr	r3, [r4, #0]
601002c6:	075a      	lsl	r2, r3, #29
601002c8:	d502      	bpl	601002d0 <set_barcodes+0x30>
601002ca:	4858      	ldr	r0, [pc, #352]	(6010042c <PROGRAM+0x284>)
601002cc:	f8fdf001 	bl	601014ca <PROGRAM+0x1322>
601002d0:	6823      	ldr	r3, [r4, #0]
601002d2:	071a      	lsl	r2, r3, #28
601002d4:	d502      	bpl	601002dc <set_barcodes+0x3c>
601002d6:	4856      	ldr	r0, [pc, #344]	(60100430 <PROGRAM+0x288>)
601002d8:	f8f7f001 	bl	601014ca <PROGRAM+0x1322>
601002dc:	6823      	ldr	r3, [r4, #0]
601002de:	06da      	lsl	r2, r3, #27
601002e0:	d502      	bpl	601002e8 <set_barcodes+0x48>
601002e2:	4854      	ldr	r0, [pc, #336]	(60100434 <PROGRAM+0x28c>)
601002e4:	f8f1f001 	bl	601014ca <PROGRAM+0x1322>
601002e8:	6823      	ldr	r3, [r4, #0]
601002ea:	069a      	lsl	r2, r3, #26
601002ec:	d502      	bpl	601002f4 <set_barcodes+0x54>
601002ee:	4852      	ldr	r0, [pc, #328]	(60100438 <PROGRAM+0x290>)
601002f0:	f8ebf001 	bl	601014ca <PROGRAM+0x1322>
601002f4:	6823      	ldr	r3, [r4, #0]
601002f6:	065a      	lsl	r2, r3, #25
601002f8:	d502      	bpl	60100300 <set_barcodes+0x60>
601002fa:	4850      	ldr	r0, [pc, #320]	(6010043c <PROGRAM+0x294>)
601002fc:	f8e5f001 	bl	601014ca <PROGRAM+0x1322>
60100300:	6823      	ldr	r3, [r4, #0]
60100302:	061a      	lsl	r2, r3, #24
60100304:	d502      	bpl	6010030c <set_barcodes+0x6c>
60100306:	484e      	ldr	r0, [pc, #312]	(60100440 <PROGRAM+0x298>)
60100308:	f8dff001 	bl	601014ca <PROGRAM+0x1322>
6010030c:	6823      	ldr	r3, [r4, #0]
6010030e:	05da      	lsl	r2, r3, #23
60100310:	d502      	bpl	60100318 <set_barcodes+0x78>
60100312:	484c      	ldr	r0, [pc, #304]	(60100444 <PROGRAM+0x29c>)
60100314:	f8d9f001 	bl	601014ca <PROGRAM+0x1322>
60100318:	6823      	ldr	r3, [r4, #0]
6010031a:	059a      	lsl	r2, r3, #22
6010031c:	d502      	bpl	60100324 <set_barcodes+0x84>
6010031e:	484a      	ldr	r0, [pc, #296]	(60100448 <PROGRAM+0x2a0>)
60100320:	f8d3f001 	bl	601014ca <PROGRAM+0x1322>
60100324:	6823      	ldr	r3, [r4, #0]
60100326:	055a      	lsl	r2, r3, #21
60100328:	d503      	bpl	60100332 <set_barcodes+0x92>
6010032a:	4848      	ldr	r0, [pc, #288]	(6010044c <PROGRAM+0x2a4>)
6010032c:	4b3b      	ldr	r3, [pc, #236]	(6010041c <PROGRAM+0x274>)
6010032e:	f8caf001 	bl	601014c6 <PROGRAM+0x131e>
60100332:	6823      	ldr	r3, [r4, #0]
60100334:	04da      	lsl	r2, r3, #19
60100336:	d503      	bpl	60100340 <set_barcodes+0xa0>
60100338:	4845      	ldr	r0, [pc, #276]	(60100450 <PROGRAM+0x2a8>)
6010033a:	4b38      	ldr	r3, [pc, #224]	(6010041c <PROGRAM+0x274>)
6010033c:	f8c3f001 	bl	601014c6 <PROGRAM+0x131e>
60100340:	6823      	ldr	r3, [r4, #0]
60100342:	049a      	lsl	r2, r3, #18
60100344:	d503      	bpl	6010034e <set_barcodes+0xae>
60100346:	4843      	ldr	r0, [pc, #268]	(60100454 <PROGRAM+0x2ac>)
60100348:	4b34      	ldr	r3, [pc, #208]	(6010041c <PROGRAM+0x274>)
6010034a:	f8bcf001 	bl	601014c6 <PROGRAM+0x131e>
6010034e:	6823      	ldr	r3, [r4, #0]
60100350:	045a      	lsl	r2, r3, #17
60100352:	d503      	bpl	6010035c <set_barcodes+0xbc>
60100354:	4840      	ldr	r0, [pc, #256]	(60100458 <PROGRAM+0x2b0>)
60100356:	4b31      	ldr	r3, [pc, #196]	(6010041c <PROGRAM+0x274>)
60100358:	f8b5f001 	bl	601014c6 <PROGRAM+0x131e>
6010035c:	6823      	ldr	r3, [r4, #0]
6010035e:	041a      	lsl	r2, r3, #16
60100360:	d503      	bpl	6010036a <set_barcodes+0xca>
60100362:	483e      	ldr	r0, [pc, #248]	(6010045c <PROGRAM+0x2b4>)
60100364:	4b2d      	ldr	r3, [pc, #180]	(6010041c <PROGRAM+0x274>)
60100366:	f8aef001 	bl	601014c6 <PROGRAM+0x131e>
6010036a:	6823      	ldr	r3, [r4, #0]
6010036c:	03da      	lsl	r2, r3, #15
6010036e:	d503      	bpl	60100378 <set_barcodes+0xd8>
60100370:	483b      	ldr	r0, [pc, #236]	(60100460 <PROGRAM+0x2b8>)
60100372:	4b2a      	ldr	r3, [pc, #168]	(6010041c <PROGRAM+0x274>)
60100374:	f8a7f001 	bl	601014c6 <PROGRAM+0x131e>
60100378:	6823      	ldr	r3, [r4, #0]
6010037a:	039a      	lsl	r2, r3, #14
6010037c:	d503      	bpl	60100386 <set_barcodes+0xe6>
6010037e:	4839      	ldr	r0, [pc, #228]	(60100464 <PROGRAM+0x2bc>)
60100380:	4b26      	ldr	r3, [pc, #152]	(6010041c <PROGRAM+0x274>)
60100382:	f8a0f001 	bl	601014c6 <PROGRAM+0x131e>
60100386:	6823      	ldr	r3, [r4, #0]
60100388:	035a      	lsl	r2, r3, #13
6010038a:	d503      	bpl	60100394 <set_barcodes+0xf4>
6010038c:	4836      	ldr	r0, [pc, #216]	(60100468 <PROGRAM+0x2c0>)
6010038e:	4b23      	ldr	r3, [pc, #140]	(6010041c <PROGRAM+0x274>)
60100390:	f899f001 	bl	601014c6 <PROGRAM+0x131e>
60100394:	6823      	ldr	r3, [r4, #0]
60100396:	031a      	lsl	r2, r3, #12
60100398:	d503      	bpl	601003a2 <set_barcodes+0x102>
6010039a:	4834      	ldr	r0, [pc, #208]	(6010046c <PROGRAM+0x2c4>)
6010039c:	4b1f      	ldr	r3, [pc, #124]	(6010041c <PROGRAM+0x274>)
6010039e:	f892f001 	bl	601014c6 <PROGRAM+0x131e>
601003a2:	6823      	ldr	r3, [r4, #0]
601003a4:	02da      	lsl	r2, r3, #11
601003a6:	d503      	bpl	601003b0 <set_barcodes+0x110>
601003a8:	4831      	ldr	r0, [pc, #196]	(60100470 <PROGRAM+0x2c8>)
601003aa:	4b1c      	ldr	r3, [pc, #112]	(6010041c <PROGRAM+0x274>)
601003ac:	f88bf001 	bl	601014c6 <PROGRAM+0x131e>
601003b0:	6823      	ldr	r3, [r4, #0]
601003b2:	051a      	lsl	r2, r3, #20
601003b4:	d503      	bpl	601003be <set_barcodes+0x11e>
601003b6:	482f      	ldr	r0, [pc, #188]	(60100474 <PROGRAM+0x2cc>)
601003b8:	4b18      	ldr	r3, [pc, #96]	(6010041c <PROGRAM+0x274>)
601003ba:	f884f001 	bl	601014c6 <PROGRAM+0x131e>
601003be:	6823      	ldr	r3, [r4, #0]
601003c0:	029a      	lsl	r2, r3, #10
601003c2:	d503      	bpl	601003cc <set_barcodes+0x12c>
601003c4:	482c      	ldr	r0, [pc, #176]	(60100478 <PROGRAM+0x2d0>)
601003c6:	4b15      	ldr	r3, [pc, #84]	(6010041c <PROGRAM+0x274>)
601003c8:	f87df001 	bl	601014c6 <PROGRAM+0x131e>
601003cc:	6823      	ldr	r3, [r4, #0]
601003ce:	021a      	lsl	r2, r3, #8
601003d0:	d503      	bpl	601003da <set_barcodes+0x13a>
601003d2:	482a      	ldr	r0, [pc, #168]	(6010047c <PROGRAM+0x2d4>)
601003d4:	4b11      	ldr	r3, [pc, #68]	(6010041c <PROGRAM+0x274>)
601003d6:	f876f001 	bl	601014c6 <PROGRAM+0x131e>
601003da:	6823      	ldr	r3, [r4, #0]
601003dc:	01da      	lsl	r2, r3, #7
601003de:	d503      	bpl	601003e8 <set_barcodes+0x148>
601003e0:	4827      	ldr	r0, [pc, #156]	(60100480 <PROGRAM+0x2d8>)
601003e2:	4b0e      	ldr	r3, [pc, #56]	(6010041c <PROGRAM+0x274>)
601003e4:	f86ff001 	bl	601014c6 <PROGRAM+0x131e>
601003e8:	6823      	ldr	r3, [r4, #0]
601003ea:	025a      	lsl	r2, r3, #9
601003ec:	d503      	bpl	601003f6 <set_barcodes+0x156>
601003ee:	4825      	ldr	r0, [pc, #148]	(60100484 <PROGRAM+0x2dc>)
601003f0:	4b0a      	ldr	r3, [pc, #40]	(6010041c <PROGRAM+0x274>)
601003f2:	f868f001 	bl	601014c6 <PROGRAM+0x131e>
601003f6:	6823      	ldr	r3, [r4, #0]
601003f8:	019a      	lsl	r2, r3, #6
601003fa:	d503      	bpl	60100404 <set_barcodes+0x164>
601003fc:	4822      	ldr	r0, [pc, #136]	(60100488 <PROGRAM+0x2e0>)
601003fe:	4b07      	ldr	r3, [pc, #28]	(6010041c <PROGRAM+0x274>)
60100400:	f861f001 	bl	601014c6 <PROGRAM+0x131e>
60100404:	6823      	ldr	r3, [r4, #0]
60100406:	015a      	lsl	r2, r3, #5
60100408:	d503      	bpl	60100412 <set_barcodes+0x172>
6010040a:	4820      	ldr	r0, [pc, #128]	(6010048c <PROGRAM+0x2e4>)
6010040c:	4b03      	ldr	r3, [pc, #12]	(6010041c <PROGRAM+0x274>)
6010040e:	f85af001 	bl	601014c6 <PROGRAM+0x131e>
60100412:	bc30      	pop	{r4, r5}
60100414:	bc01      	pop	{r0}
60100416:	4700      	bx	r0
60100418:	70e4      	strb	r4, [r4, #3]
6010041a:	6010      	str	r0, [r2, #0]
6010041c:	36b0      	add	r6, #176
6010041e:	6010      	str	r0, [r2, #0]
60100420:	2a78      	cmp	r2, #120
60100422:	6200      	str	r0, [r0, #32]
60100424:	70e8      	strb	r0, [r5, #3]
60100426:	6010      	str	r0, [r2, #0]
60100428:	70f0      	strb	r0, [r6, #3]
6010042a:	6010      	str	r0, [r2, #0]
6010042c:	70f4      	strb	r4, [r6, #3]
6010042e:	6010      	str	r0, [r2, #0]
60100430:	70f8      	strb	r0, [r7, #3]
60100432:	6010      	str	r0, [r2, #0]
60100434:	70fc      	strb	r4, [r7, #3]
60100436:	6010      	str	r0, [r2, #0]
60100438:	7100      	strb	r0, [r0, #4]
6010043a:	6010      	str	r0, [r2, #0]
6010043c:	7104      	strb	r4, [r0, #4]
6010043e:	6010      	str	r0, [r2, #0]
60100440:	7108      	strb	r0, [r1, #4]
60100442:	6010      	str	r0, [r2, #0]
60100444:	7110      	strb	r0, [r2, #4]
60100446:	6010      	str	r0, [r2, #0]
60100448:	7114      	strb	r4, [r2, #4]
6010044a:	6010      	str	r0, [r2, #0]
6010044c:	711c      	strb	r4, [r3, #4]
6010044e:	6010      	str	r0, [r2, #0]
60100450:	7120      	strb	r0, [r4, #4]
60100452:	6010      	str	r0, [r2, #0]
60100454:	7124      	strb	r4, [r4, #4]
60100456:	6010      	str	r0, [r2, #0]
60100458:	7128      	strb	r0, [r5, #4]
6010045a:	6010      	str	r0, [r2, #0]
6010045c:	712c      	strb	r4, [r5, #4]
6010045e:	6010      	str	r0, [r2, #0]
60100460:	7130      	strb	r0, [r6, #4]
60100462:	6010      	str	r0, [r2, #0]
60100464:	7138      	strb	r0, [r7, #4]
60100466:	6010      	str	r0, [r2, #0]
60100468:	713c      	strb	r4, [r7, #4]
6010046a:	6010      	str	r0, [r2, #0]
6010046c:	7144      	strb	r4, [r0, #5]
6010046e:	6010      	str	r0, [r2, #0]
60100470:	714c      	strb	r4, [r1, #5]
60100472:	6010      	str	r0, [r2, #0]
60100474:	7154      	strb	r4, [r2, #5]
60100476:	6010      	str	r0, [r2, #0]
60100478:	716c      	strb	r4, [r5, #5]
6010047a:	6010      	str	r0, [r2, #0]
6010047c:	7174      	strb	r4, [r6, #5]
6010047e:	6010      	str	r0, [r2, #0]
60100480:	717c      	strb	r4, [r7, #5]
60100482:	6010      	str	r0, [r2, #0]
60100484:	7184      	strb	r4, [r0, #6]
60100486:	6010      	str	r0, [r2, #0]
60100488:	718c      	strb	r4, [r1, #6]
6010048a:	6010      	str	r0, [r2, #0]
6010048c:	7194      	strb	r4, [r2, #6]
6010048e:	6010      	str	r0, [r2, #0]

60100490 <GetMaxCharsXPos>:
60100490:	b500      	push	{lr}
60100492:	b082      	sub	sp, #8
60100494:	2300      	mov	r3, #0
60100496:	9301      	str	r3, [sp, #4]
60100498:	9300      	str	r3, [sp, #0]
6010049a:	4668      	mov	r0, sp
6010049c:	a901      	add	r1, sp, #4
6010049e:	4b05      	ldr	r3, [pc, #20]	(601004b4 <PROGRAM+0x30c>)
601004a0:	f811f001 	bl	601014c6 <PROGRAM+0x131e>
601004a4:	9901      	ldr	r1, [sp, #4]
601004a6:	4b04      	ldr	r3, [pc, #16]	(601004b8 <PROGRAM+0x310>)
601004a8:	2080      	mov	r0, #128
601004aa:	f80cf001 	bl	601014c6 <PROGRAM+0x131e>
601004ae:	b002      	add	sp, #8
601004b0:	bc02      	pop	{r1}
601004b2:	4708      	bx	r1
601004b4:	3578      	add	r5, #120
601004b6:	6010      	str	r0, [r2, #0]
601004b8:	42d1      	cmn	r1, r2
601004ba:	6010      	str	r0, [r2, #0]

601004bc <display_input_data>:
601004bc:	b530      	push	{r4, r5, lr}
601004be:	1c04      	mov	r4, r0		(add r4, r0, #0)
601004c0:	ffe6f7ff 	bl	60100490 <GetMaxCharsXPos>
601004c4:	2101      	mov	r1, #1
601004c6:	1c05      	mov	r5, r0		(add r5, r0, #0)
601004c8:	4b0a      	ldr	r3, [pc, #40]	(601004f4 <PROGRAM+0x34c>)
601004ca:	2000      	mov	r0, #0
601004cc:	fffbf000 	bl	601014c6 <PROGRAM+0x131e>
601004d0:	1c29      	mov	r1, r5		(add r1, r5, #0)
601004d2:	1c2a      	mov	r2, r5		(add r2, r5, #0)
601004d4:	1c23      	mov	r3, r4		(add r3, r4, #0)
601004d6:	4d08      	ldr	r5, [pc, #32]	(601004f8 <PROGRAM+0x350>)
601004d8:	4808      	ldr	r0, [pc, #32]	(601004fc <PROGRAM+0x354>)
601004da:	fff6f000 	bl	601014ca <PROGRAM+0x1322>
601004de:	4b08      	ldr	r3, [pc, #32]	(60100500 <PROGRAM+0x358>)
601004e0:	18e4      	add	r4, r4, r3
601004e2:	2107      	mov	r1, #7
601004e4:	2207      	mov	r2, #7
601004e6:	1c23      	mov	r3, r4		(add r3, r4, #0)
601004e8:	4806      	ldr	r0, [pc, #24]	(60100504 <PROGRAM+0x35c>)
601004ea:	ffeef000 	bl	601014ca <PROGRAM+0x1322>
601004ee:	bc30      	pop	{r4, r5}
601004f0:	bc01      	pop	{r0}
601004f2:	4700      	bx	r0
601004f4:	35a8      	add	r5, #168
601004f6:	6010      	str	r0, [r2, #0]
601004f8:	3d70      	sub	r5, #112
601004fa:	6010      	str	r0, [r2, #0]
601004fc:	719c      	strb	r4, [r3, #6]
601004fe:	6010      	str	r0, [r2, #0]
60100500:	0401      	lsl	r1, r0, #16
60100502:	0000      	lsl	r0, r0, #0
60100504:	71a4      	strb	r4, [r4, #6]
60100506:	6010      	str	r0, [r2, #0]

60100508 <store_input_data>:
60100508:	b570      	push	{r4, r5, r6, lr}
6010050a:	4b34      	ldr	r3, [pc, #208]	(601005dc <PROGRAM+0x434>)
6010050c:	b08a      	sub	sp, #40
6010050e:	1c04      	mov	r4, r0		(add r4, r0, #0)
60100510:	1c0e      	mov	r6, r1		(add r6, r1, #0)
60100512:	ffd8f000 	bl	601014c6 <PROGRAM+0x131e>
60100516:	4b32      	ldr	r3, [pc, #200]	(601005e0 <PROGRAM+0x438>)
60100518:	4298      	cmp	r0, r3
6010051a:	d804      	bhi	60100526 <store_input_data+0x1e>
6010051c:	4b31      	ldr	r3, [pc, #196]	(601005e4 <PROGRAM+0x43c>)
6010051e:	4832      	ldr	r0, [pc, #200]	(601005e8 <PROGRAM+0x440>)
60100520:	ffd1f000 	bl	601014c6 <PROGRAM+0x131e>
60100524:	e034      	b	60100590 <store_input_data+0x88>
60100526:	4a31      	ldr	r2, [pc, #196]	(601005ec <PROGRAM+0x444>)
60100528:	2307      	mov	r3, #7
6010052a:	9301      	str	r3, [sp, #4]
6010052c:	9302      	str	r3, [sp, #8]
6010052e:	18a3      	add	r3, r4, r2
60100530:	9303      	str	r3, [sp, #12]
60100532:	3208      	add	r2, #8
60100534:	2308      	mov	r3, #8
60100536:	9304      	str	r3, [sp, #16]
60100538:	9305      	str	r3, [sp, #20]
6010053a:	18a3      	add	r3, r4, r2
6010053c:	9306      	str	r3, [sp, #24]
6010053e:	3209      	add	r2, #9
60100540:	230a      	mov	r3, #10
60100542:	9307      	str	r3, [sp, #28]
60100544:	9308      	str	r3, [sp, #32]
60100546:	18a3      	add	r3, r4, r2
60100548:	2280      	mov	r2, #128
6010054a:	00d2      	lsl	r2, r2, #3
6010054c:	4928      	ldr	r1, [pc, #160]	(601005f0 <PROGRAM+0x448>)
6010054e:	9400      	str	r4, [sp, #0]
60100550:	9309      	str	r3, [sp, #36]
60100552:	4c28      	ldr	r4, [pc, #160]	(601005f4 <PROGRAM+0x44c>)
60100554:	1c13      	mov	r3, r2		(add r3, r2, #0)
60100556:	4828      	ldr	r0, [pc, #160]	(601005f8 <PROGRAM+0x450>)
60100558:	ffb6f000 	bl	601014c8 <PROGRAM+0x1320>
6010055c:	4c27      	ldr	r4, [pc, #156]	(601005fc <PROGRAM+0x454>)
6010055e:	4d28      	ldr	r5, [pc, #160]	(60100600 <PROGRAM+0x458>)
60100560:	1c20      	mov	r0, r4		(add r0, r4, #0)
60100562:	4928      	ldr	r1, [pc, #160]	(60100604 <PROGRAM+0x45c>)
60100564:	1c2a      	mov	r2, r5		(add r2, r5, #0)
60100566:	4b28      	ldr	r3, [pc, #160]	(60100608 <PROGRAM+0x460>)
60100568:	ffadf000 	bl	601014c6 <PROGRAM+0x131e>
6010056c:	2800      	cmp	r0, #0
6010056e:	d113      	bne	60100598 <store_input_data+0x90>
60100570:	1c20      	mov	r0, r4		(add r0, r4, #0)
60100572:	4924      	ldr	r1, [pc, #144]	(60100604 <PROGRAM+0x45c>)
60100574:	1c2a      	mov	r2, r5		(add r2, r5, #0)
60100576:	4b25      	ldr	r3, [pc, #148]	(6010060c <PROGRAM+0x464>)
60100578:	ffa5f000 	bl	601014c6 <PROGRAM+0x131e>
6010057c:	2800      	cmp	r0, #0
6010057e:	d10b      	bne	60100598 <store_input_data+0x90>
60100580:	4b23      	ldr	r3, [pc, #140]	(60100610 <PROGRAM+0x468>)
60100582:	ffa0f000 	bl	601014c6 <PROGRAM+0x131e>
60100586:	1c01      	mov	r1, r0		(add r1, r0, #0)
60100588:	4822      	ldr	r0, [pc, #136]	(60100614 <PROGRAM+0x46c>)
6010058a:	4b16      	ldr	r3, [pc, #88]	(601005e4 <PROGRAM+0x43c>)
6010058c:	ff9bf000 	bl	601014c6 <PROGRAM+0x131e>
60100590:	4b21      	ldr	r3, [pc, #132]	(60100618 <PROGRAM+0x470>)
60100592:	ff98f000 	bl	601014c6 <PROGRAM+0x131e>
60100596:	e01c      	b	601005d2 <store_input_data+0xca>
60100598:	1c73      	add	r3, r6, #1
6010059a:	d004      	beq	601005a6 <store_input_data+0x9e>
6010059c:	4818      	ldr	r0, [pc, #96]	(60100600 <PROGRAM+0x458>)
6010059e:	1c31      	mov	r1, r6		(add r1, r6, #0)
601005a0:	4b1e      	ldr	r3, [pc, #120]	(6010061c <PROGRAM+0x474>)
601005a2:	ff90f000 	bl	601014c6 <PROGRAM+0x131e>
601005a6:	4c16      	ldr	r4, [pc, #88]	(60100600 <PROGRAM+0x458>)
601005a8:	4b1d      	ldr	r3, [pc, #116]	(60100620 <PROGRAM+0x478>)
601005aa:	4913      	ldr	r1, [pc, #76]	(601005f8 <PROGRAM+0x450>)
601005ac:	1c20      	mov	r0, r4		(add r0, r4, #0)
601005ae:	2202      	mov	r2, #2
601005b0:	ff89f000 	bl	601014c6 <PROGRAM+0x131e>
601005b4:	4b1b      	ldr	r3, [pc, #108]	(60100624 <PROGRAM+0x47c>)
601005b6:	2800      	cmp	r0, #0
601005b8:	d108      	bne	601005cc <store_input_data+0xc4>
601005ba:	1c20      	mov	r0, r4		(add r0, r4, #0)
601005bc:	ff83f000 	bl	601014c6 <PROGRAM+0x131e>
601005c0:	4b13      	ldr	r3, [pc, #76]	(60100610 <PROGRAM+0x468>)
601005c2:	ff80f000 	bl	601014c6 <PROGRAM+0x131e>
601005c6:	1c01      	mov	r1, r0		(add r1, r0, #0)
601005c8:	4817      	ldr	r0, [pc, #92]	(60100628 <PROGRAM+0x480>)
601005ca:	e7de      	b	6010058a <store_input_data+0x82>
601005cc:	1c20      	mov	r0, r4		(add r0, r4, #0)
601005ce:	ff7af000 	bl	601014c6 <PROGRAM+0x131e>
601005d2:	b00a      	add	sp, #40
601005d4:	bc70      	pop	{r4, r5, r6}
601005d6:	bc01      	pop	{r0}
601005d8:	4700      	bx	r0
601005da:	0000      	lsl	r0, r0, #0
601005dc:	3500      	add	r5, #0
601005de:	6010      	str	r0, [r2, #0]
601005e0:	1387      	asr	r7, r0, #14
601005e2:	0000      	lsl	r0, r0, #0
601005e4:	3d70      	sub	r5, #112
601005e6:	6010      	str	r0, [r2, #0]
601005e8:	71b4      	strb	r4, [r6, #6]
601005ea:	6010      	str	r0, [r2, #0]
601005ec:	0401      	lsl	r1, r0, #16
601005ee:	0000      	lsl	r0, r0, #0
601005f0:	71e8      	strb	r0, [r5, #7]
601005f2:	6010      	str	r0, [r2, #0]
601005f4:	3ef0      	sub	r6, #240
601005f6:	6010      	str	r0, [r2, #0]
601005f8:	0418      	lsl	r0, r3, #16
601005fa:	6200      	str	r0, [r0, #32]
601005fc:	7208      	strb	r0, [r1, #8]
601005fe:	6010      	str	r0, [r2, #0]
60100600:	0838      	lsr	r0, r7, #0
60100602:	6200      	str	r0, [r0, #32]
60100604:	041e      	lsl	r6, r3, #16
60100606:	0000      	lsl	r0, r0, #0
60100608:	1559      	asr	r1, r3, #21
6010060a:	6010      	str	r0, [r2, #0]
6010060c:	14dd      	asr	r5, r3, #19
6010060e:	6010      	str	r0, [r2, #0]
60100610:	14d1      	asr	r1, r2, #19
60100612:	6010      	str	r0, [r2, #0]
60100614:	7214      	strb	r4, [r2, #8]
60100616:	6010      	str	r0, [r2, #0]
60100618:	2215      	mov	r2, #21
6010061a:	6010      	str	r0, [r2, #0]
6010061c:	16d1      	asr	r1, r2, #27
6010061e:	6010      	str	r0, [r2, #0]
60100620:	18b1      	add	r1, r6, r2
60100622:	6010      	str	r0, [r2, #0]
60100624:	1529      	asr	r1, r5, #20
60100626:	6010      	str	r0, [r2, #0]
60100628:	7248      	strb	r0, [r1, #9]
6010062a:	6010      	str	r0, [r2, #0]

6010062c <string_quantity_to_long>:
6010062c:	b570      	push	{r4, r5, r6, lr}
6010062e:	4c14      	ldr	r4, [pc, #80]	(60100680 <PROGRAM+0x4d8>)
60100630:	2300      	mov	r3, #0
60100632:	600b      	str	r3, [r1, #0]
60100634:	2208      	mov	r2, #8
60100636:	1c06      	mov	r6, r0		(add r6, r0, #0)
60100638:	1c0d      	mov	r5, r1		(add r5, r1, #0)
6010063a:	1c20      	mov	r0, r4		(add r0, r4, #0)
6010063c:	2100      	mov	r1, #0
6010063e:	4b11      	ldr	r3, [pc, #68]	(60100684 <PROGRAM+0x4dc>)
60100640:	ff41f000 	bl	601014c6 <PROGRAM+0x131e>
60100644:	2200      	mov	r2, #0
60100646:	5cb3      	ldrb	r3, [r6, r2]
60100648:	2b00      	cmp	r3, #0
6010064a:	d006      	beq	6010065a <string_quantity_to_long+0x2e>
6010064c:	2b20      	cmp	r3, #32
6010064e:	d001      	beq	60100654 <string_quantity_to_long+0x28>
60100650:	7023      	strb	r3, [r4, #0]
60100652:	3401      	add	r4, #1
60100654:	3201      	add	r2, #1
60100656:	2a07      	cmp	r2, #7
60100658:	d1f5      	bne	60100646 <string_quantity_to_long+0x1a>
6010065a:	4c09      	ldr	r4, [pc, #36]	(60100680 <PROGRAM+0x4d8>)
6010065c:	4b0a      	ldr	r3, [pc, #40]	(60100688 <PROGRAM+0x4e0>)
6010065e:	1c20      	mov	r0, r4		(add r0, r4, #0)
60100660:	ff31f000 	bl	601014c6 <PROGRAM+0x131e>
60100664:	2800      	cmp	r0, #0
60100666:	d104      	bne	60100672 <string_quantity_to_long+0x46>
60100668:	7823      	ldrb	r3, [r4, #0]
6010066a:	2b2d      	cmp	r3, #45
6010066c:	d101      	bne	60100672 <string_quantity_to_long+0x46>
6010066e:	2301      	mov	r3, #1
60100670:	602b      	str	r3, [r5, #0]
60100672:	4b05      	ldr	r3, [pc, #20]	(60100688 <PROGRAM+0x4e0>)
60100674:	4802      	ldr	r0, [pc, #8]	(60100680 <PROGRAM+0x4d8>)
60100676:	ff26f000 	bl	601014c6 <PROGRAM+0x131e>
6010067a:	bc70      	pop	{r4, r5, r6}
6010067c:	bc02      	pop	{r1}
6010067e:	4708      	bx	r1
60100680:	084c      	lsr	r4, r1, #1
60100682:	6200      	str	r0, [r0, #32]
60100684:	3cf8      	sub	r4, #248
60100686:	6010      	str	r0, [r2, #0]
60100688:	3990      	sub	r1, #144
6010068a:	6010      	str	r0, [r2, #0]

6010068c <fill_record_struct>:
6010068c:	b570      	push	{r4, r5, r6, lr}
6010068e:	2284      	mov	r2, #132
60100690:	1c0e      	mov	r6, r1		(add r6, r1, #0)
60100692:	4b12      	ldr	r3, [pc, #72]	(601006dc <PROGRAM+0x534>)
60100694:	00d2      	lsl	r2, r2, #3
60100696:	2100      	mov	r1, #0
60100698:	1c04      	mov	r4, r0		(add r4, r0, #0)
6010069a:	ff14f000 	bl	601014c6 <PROGRAM+0x131e>
6010069e:	2280      	mov	r2, #128
601006a0:	4d0f      	ldr	r5, [pc, #60]	(601006e0 <PROGRAM+0x538>)
601006a2:	1c31      	mov	r1, r6		(add r1, r6, #0)
601006a4:	00d2      	lsl	r2, r2, #3
601006a6:	1c20      	mov	r0, r4		(add r0, r4, #0)
601006a8:	ff0ff000 	bl	601014ca <PROGRAM+0x1322>
601006ac:	490d      	ldr	r1, [pc, #52]	(601006e4 <PROGRAM+0x53c>)
601006ae:	2207      	mov	r2, #7
601006b0:	1860      	add	r0, r4, r1
601006b2:	1871      	add	r1, r6, r1
601006b4:	ff09f000 	bl	601014ca <PROGRAM+0x1322>
601006b8:	490b      	ldr	r1, [pc, #44]	(601006e8 <PROGRAM+0x540>)
601006ba:	2208      	mov	r2, #8
601006bc:	1860      	add	r0, r4, r1
601006be:	1871      	add	r1, r6, r1
601006c0:	ff03f000 	bl	601014ca <PROGRAM+0x1322>
601006c4:	4b09      	ldr	r3, [pc, #36]	(601006ec <PROGRAM+0x544>)
601006c6:	18f6      	add	r6, r6, r3
601006c8:	18e4      	add	r4, r4, r3
601006ca:	1c31      	mov	r1, r6		(add r1, r6, #0)
601006cc:	1c20      	mov	r0, r4		(add r0, r4, #0)
601006ce:	220a      	mov	r2, #10
601006d0:	fefbf000 	bl	601014ca <PROGRAM+0x1322>
601006d4:	bc70      	pop	{r4, r5, r6}
601006d6:	bc01      	pop	{r0}
601006d8:	4700      	bx	r0
601006da:	0000      	lsl	r0, r0, #0
601006dc:	3cf8      	sub	r4, #248
601006de:	6010      	str	r0, [r2, #0]
601006e0:	3ce0      	sub	r4, #224
601006e2:	6010      	str	r0, [r2, #0]
601006e4:	0401      	lsl	r1, r0, #16
601006e6:	0000      	lsl	r0, r0, #0
601006e8:	0409      	lsl	r1, r1, #16
601006ea:	0000      	lsl	r0, r0, #0
601006ec:	0412      	lsl	r2, r2, #16
	...

601006f0 <FindBarcodeInDatabase>:
601006f0:	b5f0      	push	{r4, r5, r6, r7, lr}
601006f2:	4c19      	ldr	r4, [pc, #100]	(60100758 <PROGRAM+0x5b0>)
601006f4:	1c05      	mov	r5, r0		(add r5, r0, #0)
601006f6:	1c0f      	mov	r7, r1		(add r7, r1, #0)
601006f8:	b081      	sub	sp, #4
601006fa:	4818      	ldr	r0, [pc, #96]	(6010075c <PROGRAM+0x5b4>)
601006fc:	4918      	ldr	r1, [pc, #96]	(60100760 <PROGRAM+0x5b8>)
601006fe:	1c22      	mov	r2, r4		(add r2, r4, #0)
60100700:	4b18      	ldr	r3, [pc, #96]	(60100764 <PROGRAM+0x5bc>)
60100702:	fee0f000 	bl	601014c6 <PROGRAM+0x131e>
60100706:	2800      	cmp	r0, #0
60100708:	d102      	bne	60100710 <FindBarcodeInDatabase+0x20>
6010070a:	2501      	mov	r5, #1
6010070c:	426d      	neg	r5, r5
6010070e:	e01e      	b	6010074e <FindBarcodeInDatabase+0x5e>
60100710:	4e15      	ldr	r6, [pc, #84]	(60100768 <PROGRAM+0x5c0>)
60100712:	2300      	mov	r3, #0
60100714:	9300      	str	r3, [sp, #0]
60100716:	2380      	mov	r3, #128
60100718:	1c20      	mov	r0, r4		(add r0, r4, #0)
6010071a:	1c2a      	mov	r2, r5		(add r2, r5, #0)
6010071c:	1c31      	mov	r1, r6		(add r1, r6, #0)
6010071e:	00db      	lsl	r3, r3, #3
60100720:	4c12      	ldr	r4, [pc, #72]	(6010076c <PROGRAM+0x5c4>)
60100722:	fed1f000 	bl	601014c8 <PROGRAM+0x1320>
60100726:	1c05      	mov	r5, r0		(add r5, r0, #0)
60100728:	1c43      	add	r3, r0, #1
6010072a:	d00c      	beq	60100746 <FindBarcodeInDatabase+0x56>
6010072c:	4c10      	ldr	r4, [pc, #64]	(60100770 <PROGRAM+0x5c8>)
6010072e:	1c31      	mov	r1, r6		(add r1, r6, #0)
60100730:	1c20      	mov	r0, r4		(add r0, r4, #0)
60100732:	ffabf7ff 	bl	6010068c <fill_record_struct>
60100736:	4b0f      	ldr	r3, [pc, #60]	(60100774 <PROGRAM+0x5cc>)
60100738:	18e4      	add	r4, r4, r3
6010073a:	1c38      	mov	r0, r7		(add r0, r7, #0)
6010073c:	1c21      	mov	r1, r4		(add r1, r4, #0)
6010073e:	2207      	mov	r2, #7
60100740:	4b0d      	ldr	r3, [pc, #52]	(60100778 <PROGRAM+0x5d0>)
60100742:	fec0f000 	bl	601014c6 <PROGRAM+0x131e>
60100746:	4804      	ldr	r0, [pc, #16]	(60100758 <PROGRAM+0x5b0>)
60100748:	4b0c      	ldr	r3, [pc, #48]	(6010077c <PROGRAM+0x5d4>)
6010074a:	febcf000 	bl	601014c6 <PROGRAM+0x131e>
6010074e:	1c28      	mov	r0, r5		(add r0, r5, #0)
60100750:	b001      	add	sp, #4
60100752:	bcf0      	pop	{r4, r5, r6, r7}
60100754:	bc02      	pop	{r1}
60100756:	4708      	bx	r1
60100758:	1094      	asr	r4, r2, #2
6010075a:	6200      	str	r0, [r0, #32]
6010075c:	7208      	strb	r0, [r1, #8]
6010075e:	6010      	str	r0, [r2, #0]
60100760:	041e      	lsl	r6, r3, #16
60100762:	0000      	lsl	r0, r0, #0
60100764:	1559      	asr	r1, r3, #21
60100766:	6010      	str	r0, [r2, #0]
60100768:	0c74      	lsr	r4, r6, #17
6010076a:	6200      	str	r0, [r0, #32]
6010076c:	176d      	asr	r5, r5, #29
6010076e:	6010      	str	r0, [r2, #0]
60100770:	0854      	lsr	r4, r2, #1
60100772:	6200      	str	r0, [r0, #32]
60100774:	0401      	lsl	r1, r0, #16
60100776:	0000      	lsl	r0, r0, #0
60100778:	3f90      	sub	r7, #144
6010077a:	6010      	str	r0, [r2, #0]
6010077c:	1529      	asr	r1, r5, #20
6010077e:	6010      	str	r0, [r2, #0]

60100780 <alert>:
60100780:	b500      	push	{lr}
60100782:	1c01      	mov	r1, r0		(add r1, r0, #0)
60100784:	4b04      	ldr	r3, [pc, #16]	(60100798 <PROGRAM+0x5f0>)
60100786:	4805      	ldr	r0, [pc, #20]	(6010079c <PROGRAM+0x5f4>)
60100788:	fe9df000 	bl	601014c6 <PROGRAM+0x131e>
6010078c:	4b04      	ldr	r3, [pc, #16]	(601007a0 <PROGRAM+0x5f8>)
6010078e:	fe9af000 	bl	601014c6 <PROGRAM+0x131e>
60100792:	bc01      	pop	{r0}
60100794:	4700      	bx	r0
60100796:	0000      	lsl	r0, r0, #0
60100798:	3d70      	sub	r5, #112
6010079a:	6010      	str	r0, [r2, #0]
6010079c:	73b8      	strb	r0, [r7, #14]
6010079e:	6010      	str	r0, [r2, #0]
601007a0:	2215      	mov	r2, #21
601007a2:	6010      	str	r0, [r2, #0]

601007a4 <get_record_count>:
601007a4:	b530      	push	{r4, r5, lr}
601007a6:	4d0d      	ldr	r5, [pc, #52]	(601007dc <PROGRAM+0x634>)
601007a8:	480d      	ldr	r0, [pc, #52]	(601007e0 <PROGRAM+0x638>)
601007aa:	490e      	ldr	r1, [pc, #56]	(601007e4 <PROGRAM+0x63c>)
601007ac:	1c2a      	mov	r2, r5		(add r2, r5, #0)
601007ae:	4b0e      	ldr	r3, [pc, #56]	(601007e8 <PROGRAM+0x640>)
601007b0:	fe89f000 	bl	601014c6 <PROGRAM+0x131e>
601007b4:	2800      	cmp	r0, #0
601007b6:	d104      	bne	601007c2 <get_record_count+0x1e>
601007b8:	2107      	mov	r1, #7
601007ba:	4b0c      	ldr	r3, [pc, #48]	(601007ec <PROGRAM+0x644>)
601007bc:	fe83f000 	bl	601014c6 <PROGRAM+0x131e>
601007c0:	e009      	b	601007d6 <get_record_count+0x32>
601007c2:	4b0b      	ldr	r3, [pc, #44]	(601007f0 <PROGRAM+0x648>)
601007c4:	1c28      	mov	r0, r5		(add r0, r5, #0)
601007c6:	fe7ef000 	bl	601014c6 <PROGRAM+0x131e>
601007ca:	4b0a      	ldr	r3, [pc, #40]	(601007f4 <PROGRAM+0x64c>)
601007cc:	1c04      	mov	r4, r0		(add r4, r0, #0)
601007ce:	1c28      	mov	r0, r5		(add r0, r5, #0)
601007d0:	fe79f000 	bl	601014c6 <PROGRAM+0x131e>
601007d4:	1c20      	mov	r0, r4		(add r0, r4, #0)
601007d6:	bc30      	pop	{r4, r5}
601007d8:	bc02      	pop	{r1}
601007da:	4708      	bx	r1
601007dc:	10a8      	asr	r0, r5, #2
601007de:	6200      	str	r0, [r0, #32]
601007e0:	7208      	strb	r0, [r1, #8]
601007e2:	6010      	str	r0, [r2, #0]
601007e4:	041e      	lsl	r6, r3, #16
601007e6:	0000      	lsl	r0, r0, #0
601007e8:	1559      	asr	r1, r3, #21
601007ea:	6010      	str	r0, [r2, #0]
601007ec:	35a8      	add	r5, #168
601007ee:	6010      	str	r0, [r2, #0]
601007f0:	16b1      	asr	r1, r6, #26
601007f2:	6010      	str	r0, [r2, #0]
601007f4:	1529      	asr	r1, r5, #20
601007f6:	6010      	str	r0, [r2, #0]

601007f8 <delete_last_entry>:
601007f8:	b5f0      	push	{r4, r5, r6, r7, lr}
601007fa:	b081      	sub	sp, #4
601007fc:	2000      	mov	r0, #0
601007fe:	2100      	mov	r1, #0
60100800:	4e21      	ldr	r6, [pc, #132]	(60100888 <PROGRAM+0x6e0>)
60100802:	fe63f000 	bl	601014cc <PROGRAM+0x1324>
60100806:	4d21      	ldr	r5, [pc, #132]	(6010088c <PROGRAM+0x6e4>)
60100808:	4921      	ldr	r1, [pc, #132]	(60100890 <PROGRAM+0x6e8>)
6010080a:	4f22      	ldr	r7, [pc, #136]	(60100894 <PROGRAM+0x6ec>)
6010080c:	1c28      	mov	r0, r5		(add r0, r5, #0)
6010080e:	fe5ef000 	bl	601014ce <PROGRAM+0x1326>
60100812:	2000      	mov	r0, #0
60100814:	2107      	mov	r1, #7
60100816:	fe59f000 	bl	601014cc <PROGRAM+0x1324>
6010081a:	491f      	ldr	r1, [pc, #124]	(60100898 <PROGRAM+0x6f0>)
6010081c:	1c28      	mov	r0, r5		(add r0, r5, #0)
6010081e:	fe56f000 	bl	601014ce <PROGRAM+0x1326>
60100822:	4b1e      	ldr	r3, [pc, #120]	(6010089c <PROGRAM+0x6f4>)
60100824:	fe4ff000 	bl	601014c6 <PROGRAM+0x131e>
60100828:	2881      	cmp	r0, #129
6010082a:	d128      	bne	6010087e <delete_last_entry+0x86>
6010082c:	ffbaf7ff 	bl	601007a4 <get_record_count>
60100830:	4c1b      	ldr	r4, [pc, #108]	(601008a0 <PROGRAM+0x6f8>)
60100832:	9000      	str	r0, [sp, #0]
60100834:	491b      	ldr	r1, [pc, #108]	(601008a4 <PROGRAM+0x6fc>)
60100836:	481c      	ldr	r0, [pc, #112]	(601008a8 <PROGRAM+0x700>)
60100838:	1c22      	mov	r2, r4		(add r2, r4, #0)
6010083a:	4b1c      	ldr	r3, [pc, #112]	(601008ac <PROGRAM+0x704>)
6010083c:	fe43f000 	bl	601014c6 <PROGRAM+0x131e>
60100840:	2800      	cmp	r0, #0
60100842:	d107      	bne	60100854 <delete_last_entry+0x5c>
60100844:	2100      	mov	r1, #0
60100846:	fe41f000 	bl	601014cc <PROGRAM+0x1324>
6010084a:	4919      	ldr	r1, [pc, #100]	(601008b0 <PROGRAM+0x708>)
6010084c:	1c28      	mov	r0, r5		(add r0, r5, #0)
6010084e:	fe3ef000 	bl	601014ce <PROGRAM+0x1326>
60100852:	e014      	b	6010087e <delete_last_entry+0x86>
60100854:	9d00      	ldr	r5, [sp, #0]
60100856:	3d01      	sub	r5, #1
60100858:	1c20      	mov	r0, r4		(add r0, r4, #0)
6010085a:	1c29      	mov	r1, r5		(add r1, r5, #0)
6010085c:	4b15      	ldr	r3, [pc, #84]	(601008b4 <PROGRAM+0x70c>)
6010085e:	fe32f000 	bl	601014c6 <PROGRAM+0x131e>
60100862:	2800      	cmp	r0, #0
60100864:	d107      	bne	60100876 <delete_last_entry+0x7e>
60100866:	2100      	mov	r1, #0
60100868:	fe30f000 	bl	601014cc <PROGRAM+0x1324>
6010086c:	4812      	ldr	r0, [pc, #72]	(601008b8 <PROGRAM+0x710>)
6010086e:	4913      	ldr	r1, [pc, #76]	(601008bc <PROGRAM+0x714>)
60100870:	1c2a      	mov	r2, r5		(add r2, r5, #0)
60100872:	fe2cf000 	bl	601014ce <PROGRAM+0x1326>
60100876:	1c20      	mov	r0, r4		(add r0, r4, #0)
60100878:	4b11      	ldr	r3, [pc, #68]	(601008c0 <PROGRAM+0x718>)
6010087a:	fe24f000 	bl	601014c6 <PROGRAM+0x131e>
6010087e:	b001      	add	sp, #4
60100880:	bcf0      	pop	{r4, r5, r6, r7}
60100882:	bc01      	pop	{r0}
60100884:	4700      	bx	r0
60100886:	0000      	lsl	r0, r0, #0
60100888:	35a8      	add	r5, #168
6010088a:	6010      	str	r0, [r2, #0]
6010088c:	73b8      	strb	r0, [r7, #14]
6010088e:	6010      	str	r0, [r2, #0]
60100890:	7278      	strb	r0, [r7, #9]
60100892:	6010      	str	r0, [r2, #0]
60100894:	3d70      	sub	r5, #112
60100896:	6010      	str	r0, [r2, #0]
60100898:	728c      	strb	r4, [r1, #10]
6010089a:	6010      	str	r0, [r2, #0]
6010089c:	2215      	mov	r2, #21
6010089e:	6010      	str	r0, [r2, #0]
601008a0:	14dc      	asr	r4, r3, #19
601008a2:	6200      	str	r0, [r0, #32]
601008a4:	041e      	lsl	r6, r3, #16
601008a6:	0000      	lsl	r0, r0, #0
601008a8:	7208      	strb	r0, [r1, #8]
601008aa:	6010      	str	r0, [r2, #0]
601008ac:	1559      	asr	r1, r3, #21
601008ae:	6010      	str	r0, [r2, #0]
601008b0:	72a0      	strb	r0, [r4, #10]
601008b2:	6010      	str	r0, [r2, #0]
601008b4:	1b0d      	sub	r5, r1, r4
601008b6:	6010      	str	r0, [r2, #0]
601008b8:	72b4      	strb	r4, [r6, #10]
601008ba:	6010      	str	r0, [r2, #0]
601008bc:	72bc      	strb	r4, [r7, #10]
601008be:	6010      	str	r0, [r2, #0]
601008c0:	1529      	asr	r1, r5, #20
601008c2:	6010      	str	r0, [r2, #0]

601008c4 <display_scroll_data>:
601008c4:	b5f0      	push	{r4, r5, r6, r7, lr}
601008c6:	b082      	sub	sp, #8
601008c8:	1c16      	mov	r6, r2		(add r6, r2, #0)
601008ca:	1c07      	mov	r7, r0		(add r7, r0, #0)
601008cc:	1c0d      	mov	r5, r1		(add r5, r1, #0)
601008ce:	fddff7ff 	bl	60100490 <GetMaxCharsXPos>
601008d2:	1c04      	mov	r4, r0		(add r4, r0, #0)
601008d4:	3c0a      	sub	r4, #10
601008d6:	3501      	add	r5, #1
601008d8:	2000      	mov	r0, #0
601008da:	2100      	mov	r1, #0
601008dc:	4b09      	ldr	r3, [pc, #36]	(60100904 <PROGRAM+0x75c>)
601008de:	fdf2f000 	bl	601014c6 <PROGRAM+0x131e>
601008e2:	9500      	str	r5, [sp, #0]
601008e4:	9601      	str	r6, [sp, #4]
601008e6:	1c21      	mov	r1, r4		(add r1, r4, #0)
601008e8:	1c22      	mov	r2, r4		(add r2, r4, #0)
601008ea:	4b07      	ldr	r3, [pc, #28]	(60100908 <PROGRAM+0x760>)
601008ec:	4c07      	ldr	r4, [pc, #28]	(6010090c <PROGRAM+0x764>)
601008ee:	4808      	ldr	r0, [pc, #32]	(60100910 <PROGRAM+0x768>)
601008f0:	fdeaf000 	bl	601014c8 <PROGRAM+0x1320>
601008f4:	1c38      	mov	r0, r7		(add r0, r7, #0)
601008f6:	fde1f7ff 	bl	601004bc <display_input_data>
601008fa:	b002      	add	sp, #8
601008fc:	bcf0      	pop	{r4, r5, r6, r7}
601008fe:	bc01      	pop	{r0}
60100900:	4700      	bx	r0
60100902:	0000      	lsl	r0, r0, #0
60100904:	35a8      	add	r5, #168
60100906:	6010      	str	r0, [r2, #0]
60100908:	72f0      	strb	r0, [r6, #11]
6010090a:	6010      	str	r0, [r2, #0]
6010090c:	3d70      	sub	r5, #112
6010090e:	6010      	str	r0, [r2, #0]
60100910:	72d8      	strb	r0, [r3, #11]
60100912:	6010      	str	r0, [r2, #0]

60100914 <get_record>:
60100914:	b5f0      	push	{r4, r5, r6, r7, lr}
60100916:	4c27      	ldr	r4, [pc, #156]	(601009b4 <PROGRAM+0x80c>)
60100918:	1c07      	mov	r7, r0		(add r7, r0, #0)
6010091a:	1c0e      	mov	r6, r1		(add r6, r1, #0)
6010091c:	1c15      	mov	r5, r2		(add r5, r2, #0)
6010091e:	4826      	ldr	r0, [pc, #152]	(601009b8 <PROGRAM+0x810>)
60100920:	4926      	ldr	r1, [pc, #152]	(601009bc <PROGRAM+0x814>)
60100922:	1c22      	mov	r2, r4		(add r2, r4, #0)
60100924:	4b26      	ldr	r3, [pc, #152]	(601009c0 <PROGRAM+0x818>)
60100926:	fdcef000 	bl	601014c6 <PROGRAM+0x131e>
6010092a:	2800      	cmp	r0, #0
6010092c:	d10a      	bne	60100944 <get_record+0x30>
6010092e:	4b25      	ldr	r3, [pc, #148]	(601009c4 <PROGRAM+0x81c>)
60100930:	fdc9f000 	bl	601014c6 <PROGRAM+0x131e>
60100934:	4b24      	ldr	r3, [pc, #144]	(601009c8 <PROGRAM+0x820>)
60100936:	1c01      	mov	r1, r0		(add r1, r0, #0)
60100938:	4824      	ldr	r0, [pc, #144]	(601009cc <PROGRAM+0x824>)
6010093a:	fdc4f000 	bl	601014c6 <PROGRAM+0x131e>
6010093e:	4b24      	ldr	r3, [pc, #144]	(601009d0 <PROGRAM+0x828>)
60100940:	fdc1f000 	bl	601014c6 <PROGRAM+0x131e>
60100944:	4b23      	ldr	r3, [pc, #140]	(601009d4 <PROGRAM+0x82c>)
60100946:	1c20      	mov	r0, r4		(add r0, r4, #0)
60100948:	fdbdf000 	bl	601014c6 <PROGRAM+0x131e>
6010094c:	6028      	str	r0, [r5, #0]
6010094e:	4b22      	ldr	r3, [pc, #136]	(601009d8 <PROGRAM+0x830>)
60100950:	6831      	ldr	r1, [r6, #0]
60100952:	1c20      	mov	r0, r4		(add r0, r4, #0)
60100954:	fdb7f000 	bl	601014c6 <PROGRAM+0x131e>
60100958:	2800      	cmp	r0, #0
6010095a:	d105      	bne	60100968 <get_record+0x54>
6010095c:	4b19      	ldr	r3, [pc, #100]	(601009c4 <PROGRAM+0x81c>)
6010095e:	fdb2f000 	bl	601014c6 <PROGRAM+0x131e>
60100962:	1c01      	mov	r1, r0		(add r1, r0, #0)
60100964:	481d      	ldr	r0, [pc, #116]	(601009dc <PROGRAM+0x834>)
60100966:	e00c      	b	60100982 <get_record+0x6e>
60100968:	4d1d      	ldr	r5, [pc, #116]	(601009e0 <PROGRAM+0x838>)
6010096a:	1c20      	mov	r0, r4		(add r0, r4, #0)
6010096c:	1c29      	mov	r1, r5		(add r1, r5, #0)
6010096e:	4b1d      	ldr	r3, [pc, #116]	(601009e4 <PROGRAM+0x83c>)
60100970:	fda9f000 	bl	601014c6 <PROGRAM+0x131e>
60100974:	2800      	cmp	r0, #0
60100976:	d110      	bne	6010099a <get_record+0x86>
60100978:	4b12      	ldr	r3, [pc, #72]	(601009c4 <PROGRAM+0x81c>)
6010097a:	fda4f000 	bl	601014c6 <PROGRAM+0x131e>
6010097e:	1c01      	mov	r1, r0		(add r1, r0, #0)
60100980:	4819      	ldr	r0, [pc, #100]	(601009e8 <PROGRAM+0x840>)
60100982:	4b11      	ldr	r3, [pc, #68]	(601009c8 <PROGRAM+0x820>)
60100984:	fd9ff000 	bl	601014c6 <PROGRAM+0x131e>
60100988:	4b11      	ldr	r3, [pc, #68]	(601009d0 <PROGRAM+0x828>)
6010098a:	fd9cf000 	bl	601014c6 <PROGRAM+0x131e>
6010098e:	1c20      	mov	r0, r4		(add r0, r4, #0)
60100990:	4b16      	ldr	r3, [pc, #88]	(601009ec <PROGRAM+0x844>)
60100992:	fd98f000 	bl	601014c6 <PROGRAM+0x131e>
60100996:	2000      	mov	r0, #0
60100998:	e008      	b	601009ac <get_record+0x98>
6010099a:	1c20      	mov	r0, r4		(add r0, r4, #0)
6010099c:	4b13      	ldr	r3, [pc, #76]	(601009ec <PROGRAM+0x844>)
6010099e:	fd92f000 	bl	601014c6 <PROGRAM+0x131e>
601009a2:	1c38      	mov	r0, r7		(add r0, r7, #0)
601009a4:	1c29      	mov	r1, r5		(add r1, r5, #0)
601009a6:	fe71f7ff 	bl	6010068c <fill_record_struct>
601009aa:	2001      	mov	r0, #1
601009ac:	bcf0      	pop	{r4, r5, r6, r7}
601009ae:	bc02      	pop	{r1}
601009b0:	4708      	bx	r1
601009b2:	0000      	lsl	r0, r0, #0
601009b4:	1910      	add	r0, r2, r4
601009b6:	6200      	str	r0, [r0, #32]
601009b8:	7208      	strb	r0, [r1, #8]
601009ba:	6010      	str	r0, [r2, #0]
601009bc:	041e      	lsl	r6, r3, #16
601009be:	0000      	lsl	r0, r0, #0
601009c0:	1559      	asr	r1, r3, #21
601009c2:	6010      	str	r0, [r2, #0]
601009c4:	14d1      	asr	r1, r2, #19
601009c6:	6010      	str	r0, [r2, #0]
601009c8:	3d70      	sub	r5, #112
601009ca:	6010      	str	r0, [r2, #0]
601009cc:	72f8      	strb	r0, [r7, #11]
601009ce:	6010      	str	r0, [r2, #0]
601009d0:	2215      	mov	r2, #21
601009d2:	6010      	str	r0, [r2, #0]
601009d4:	16b1      	asr	r1, r6, #26
601009d6:	6010      	str	r0, [r2, #0]
601009d8:	16d1      	asr	r1, r2, #27
601009da:	6010      	str	r0, [r2, #0]
601009dc:	7330      	strb	r0, [r6, #12]
601009de:	6010      	str	r0, [r2, #0]
601009e0:	14f0      	asr	r0, r6, #19
601009e2:	6200      	str	r0, [r0, #32]
601009e4:	1645      	asr	r5, r0, #25
601009e6:	6010      	str	r0, [r2, #0]
601009e8:	7360      	strb	r0, [r4, #13]
601009ea:	6010      	str	r0, [r2, #0]
601009ec:	1529      	asr	r1, r5, #20
601009ee:	6010      	str	r0, [r2, #0]

601009f0 <list_db_contents>:
601009f0:	b570      	push	{r4, r5, r6, lr}
601009f2:	4c34      	ldr	r4, [pc, #208]	(60100ac4 <PROGRAM+0x91c>)
601009f4:	44a5      	add	sp, r4
601009f6:	fed5f7ff 	bl	601007a4 <get_record_count>
601009fa:	4933      	ldr	r1, [pc, #204]	(60100ac8 <PROGRAM+0x920>)
601009fc:	4469      	add	r1, sp
601009fe:	6008      	str	r0, [r1, #0]
60100a00:	4b32      	ldr	r3, [pc, #200]	(60100acc <PROGRAM+0x924>)
60100a02:	200c      	mov	r0, #12
60100a04:	fd5ff000 	bl	601014c6 <PROGRAM+0x131e>
60100a08:	4c31      	ldr	r4, [pc, #196]	(60100ad0 <PROGRAM+0x928>)
60100a0a:	4832      	ldr	r0, [pc, #200]	(60100ad4 <PROGRAM+0x92c>)
60100a0c:	4932      	ldr	r1, [pc, #200]	(60100ad8 <PROGRAM+0x930>)
60100a0e:	1c22      	mov	r2, r4		(add r2, r4, #0)
60100a10:	4b32      	ldr	r3, [pc, #200]	(60100adc <PROGRAM+0x934>)
60100a12:	fd58f000 	bl	601014c6 <PROGRAM+0x131e>
60100a16:	2800      	cmp	r0, #0
60100a18:	d111      	bne	60100a3e <list_db_contents+0x4e>
60100a1a:	2107      	mov	r1, #7
60100a1c:	4b30      	ldr	r3, [pc, #192]	(60100ae0 <PROGRAM+0x938>)
60100a1e:	fd52f000 	bl	601014c6 <PROGRAM+0x131e>
60100a22:	4930      	ldr	r1, [pc, #192]	(60100ae4 <PROGRAM+0x93c>)
60100a24:	4b30      	ldr	r3, [pc, #192]	(60100ae8 <PROGRAM+0x940>)
60100a26:	4831      	ldr	r0, [pc, #196]	(60100aec <PROGRAM+0x944>)
60100a28:	fd4df000 	bl	601014c6 <PROGRAM+0x131e>
60100a2c:	e044      	b	60100ab8 <list_db_contents+0xc8>
60100a2e:	4930      	ldr	r1, [pc, #192]	(60100af0 <PROGRAM+0x948>)
60100a30:	4830      	ldr	r0, [pc, #192]	(60100af4 <PROGRAM+0x94c>)
60100a32:	fd48f000 	bl	601014c6 <PROGRAM+0x131e>
60100a36:	4b30      	ldr	r3, [pc, #192]	(60100af8 <PROGRAM+0x950>)
60100a38:	fd45f000 	bl	601014c6 <PROGRAM+0x131e>
60100a3c:	e02f      	b	60100a9e <list_db_contents+0xae>
60100a3e:	1c20      	mov	r0, r4		(add r0, r4, #0)
60100a40:	4b2e      	ldr	r3, [pc, #184]	(60100afc <PROGRAM+0x954>)
60100a42:	fd40f000 	bl	601014c6 <PROGRAM+0x131e>
60100a46:	4a20      	ldr	r2, [pc, #128]	(60100ac8 <PROGRAM+0x920>)
60100a48:	446a      	add	r2, sp
60100a4a:	6814      	ldr	r4, [r2, #0]
60100a4c:	2c07      	cmp	r4, #7
60100a4e:	dd00      	ble	60100a52 <list_db_contents+0x62>
60100a50:	2408      	mov	r4, #8
60100a52:	2500      	mov	r5, #0
60100a54:	e021      	b	60100a9a <list_db_contents+0xaa>
60100a56:	2105      	mov	r1, #5
60100a58:	1b49      	sub	r1, r1, r5
60100a5a:	2000      	mov	r0, #0
60100a5c:	4b20      	ldr	r3, [pc, #128]	(60100ae0 <PROGRAM+0x938>)
60100a5e:	fd32f000 	bl	601014c6 <PROGRAM+0x131e>
60100a62:	4919      	ldr	r1, [pc, #100]	(60100ac8 <PROGRAM+0x920>)
60100a64:	4469      	add	r1, sp
60100a66:	680b      	ldr	r3, [r1, #0]
60100a68:	2284      	mov	r2, #132
60100a6a:	1b5b      	sub	r3, r3, r5
60100a6c:	00d2      	lsl	r2, r2, #3
60100a6e:	3b01      	sub	r3, #1
60100a70:	446a      	add	r2, sp
60100a72:	6013      	str	r3, [r2, #0]
60100a74:	1c11      	mov	r1, r2		(add r1, r2, #0)
60100a76:	4a14      	ldr	r2, [pc, #80]	(60100ac8 <PROGRAM+0x920>)
60100a78:	4668      	mov	r0, sp
60100a7a:	446a      	add	r2, sp
60100a7c:	ff4af7ff 	bl	60100914 <get_record>
60100a80:	2184      	mov	r1, #132
60100a82:	00c9      	lsl	r1, r1, #3
60100a84:	4469      	add	r1, sp
60100a86:	4b18      	ldr	r3, [pc, #96]	(60100ae8 <PROGRAM+0x940>)
60100a88:	680a      	ldr	r2, [r1, #0]
60100a8a:	2800      	cmp	r0, #0
60100a8c:	d0cf      	beq	60100a2e <list_db_contents+0x3e>
60100a8e:	1c11      	mov	r1, r2		(add r1, r2, #0)
60100a90:	481b      	ldr	r0, [pc, #108]	(60100b00 <PROGRAM+0x958>)
60100a92:	466a      	mov	r2, sp
60100a94:	fd17f000 	bl	601014c6 <PROGRAM+0x131e>
60100a98:	3501      	add	r5, #1
60100a9a:	42a5      	cmp	r5, r4
60100a9c:	dbdb      	blt	60100a56 <list_db_contents+0x66>
60100a9e:	2000      	mov	r0, #0
60100aa0:	2107      	mov	r1, #7
60100aa2:	4b0f      	ldr	r3, [pc, #60]	(60100ae0 <PROGRAM+0x938>)
60100aa4:	fd0ff000 	bl	601014c6 <PROGRAM+0x131e>
60100aa8:	4b07      	ldr	r3, [pc, #28]	(60100ac8 <PROGRAM+0x920>)
60100aaa:	446b      	add	r3, sp
60100aac:	681a      	ldr	r2, [r3, #0]
60100aae:	4811      	ldr	r0, [pc, #68]	(60100af4 <PROGRAM+0x94c>)
60100ab0:	4914      	ldr	r1, [pc, #80]	(60100b04 <PROGRAM+0x95c>)
60100ab2:	4b0d      	ldr	r3, [pc, #52]	(60100ae8 <PROGRAM+0x940>)
60100ab4:	fd07f000 	bl	601014c6 <PROGRAM+0x131e>
60100ab8:	2385      	mov	r3, #133
60100aba:	00db      	lsl	r3, r3, #3
60100abc:	449d      	add	sp, r3
60100abe:	bc70      	pop	{r4, r5, r6}
60100ac0:	bc01      	pop	{r0}
60100ac2:	4700      	bx	r0
60100ac4:	fbd8      	second half of BL instruction 0xfbd8
60100ac6:	ffff      	second half of BL instruction 0xffff
60100ac8:	0424      	lsl	r4, r4, #16
60100aca:	0000      	lsl	r0, r0, #0
60100acc:	3d88      	sub	r5, #136
60100ace:	6010      	str	r0, [r2, #0]
60100ad0:	1924      	add	r4, r4, r4
60100ad2:	6200      	str	r0, [r0, #32]
60100ad4:	7208      	strb	r0, [r1, #8]
60100ad6:	6010      	str	r0, [r2, #0]
60100ad8:	041e      	lsl	r6, r3, #16
60100ada:	0000      	lsl	r0, r0, #0
60100adc:	1559      	asr	r1, r3, #21
60100ade:	6010      	str	r0, [r2, #0]
60100ae0:	35a8      	add	r5, #168
60100ae2:	6010      	str	r0, [r2, #0]
60100ae4:	7390      	strb	r0, [r2, #14]
60100ae6:	6010      	str	r0, [r2, #0]
60100ae8:	3d70      	sub	r5, #112
60100aea:	6010      	str	r0, [r2, #0]
60100aec:	73b8      	strb	r0, [r7, #14]
60100aee:	6010      	str	r0, [r2, #0]
60100af0:	73a8      	strb	r0, [r5, #14]
60100af2:	6010      	str	r0, [r2, #0]
60100af4:	73a0      	strb	r0, [r4, #14]
60100af6:	6010      	str	r0, [r2, #0]
60100af8:	2215      	mov	r2, #21
60100afa:	6010      	str	r0, [r2, #0]
60100afc:	1529      	asr	r1, r5, #20
60100afe:	6010      	str	r0, [r2, #0]
60100b00:	73b4      	strb	r4, [r6, #14]
60100b02:	6010      	str	r0, [r2, #0]
60100b04:	73bc      	strb	r4, [r7, #14]
60100b06:	6010      	str	r0, [r2, #0]

60100b08 <ScanLabels>:
60100b08:	b5f0      	push	{r4, r5, r6, r7, lr}
60100b0a:	b086      	sub	sp, #24
60100b0c:	2100      	mov	r1, #0
60100b0e:	4a36      	ldr	r2, [pc, #216]	(60100be8 <PROGRAM+0xa40>)
60100b10:	4c36      	ldr	r4, [pc, #216]	(60100bec <PROGRAM+0xa44>)
60100b12:	4837      	ldr	r0, [pc, #220]	(60100bf0 <PROGRAM+0xa48>)
60100b14:	fcd8f000 	bl	601014c8 <PROGRAM+0x1320>
60100b18:	2284      	mov	r2, #132
60100b1a:	00d2      	lsl	r2, r2, #3
60100b1c:	2100      	mov	r1, #0
60100b1e:	4835      	ldr	r0, [pc, #212]	(60100bf4 <PROGRAM+0xa4c>)
60100b20:	fcd2f000 	bl	601014c8 <PROGRAM+0x1320>
60100b24:	2004      	mov	r0, #4
60100b26:	4b34      	ldr	r3, [pc, #208]	(60100bf8 <PROGRAM+0xa50>)
60100b28:	fccdf000 	bl	601014c6 <PROGRAM+0x131e>
60100b2c:	4b33      	ldr	r3, [pc, #204]	(60100bfc <PROGRAM+0xa54>)
60100b2e:	2100      	mov	r1, #0
60100b30:	2004      	mov	r0, #4
60100b32:	fcc8f000 	bl	601014c6 <PROGRAM+0x131e>
60100b36:	ff5bf7ff 	bl	601009f0 <list_db_contents>
60100b3a:	4b31      	ldr	r3, [pc, #196]	(60100c00 <PROGRAM+0xa58>)
60100b3c:	fcc3f000 	bl	601014c6 <PROGRAM+0x131e>
60100b40:	fca6f7ff 	bl	60100490 <GetMaxCharsXPos>
60100b44:	2300      	mov	r3, #0
60100b46:	4d2a      	ldr	r5, [pc, #168]	(60100bf0 <PROGRAM+0xa48>)
60100b48:	9300      	str	r3, [sp, #0]
60100b4a:	2280      	mov	r2, #128
60100b4c:	2306      	mov	r3, #6
60100b4e:	9301      	str	r3, [sp, #4]
60100b50:	9002      	str	r0, [sp, #8]
60100b52:	2101      	mov	r1, #1
60100b54:	1c28      	mov	r0, r5		(add r0, r5, #0)
60100b56:	00d2      	lsl	r2, r2, #3
60100b58:	231f      	mov	r3, #31
60100b5a:	4c2a      	ldr	r4, [pc, #168]	(60100c04 <PROGRAM+0xa5c>)
60100b5c:	fcb4f000 	bl	601014c8 <PROGRAM+0x1320>
60100b60:	2884      	cmp	r0, #132
60100b62:	d03c      	beq	60100bde <ScanLabels+0xd6>
60100b64:	2890      	cmp	r0, #144
60100b66:	d102      	bne	60100b6e <ScanLabels+0x66>
60100b68:	fe46f7ff 	bl	601007f8 <delete_last_entry>
60100b6c:	e034      	b	60100bd8 <ScanLabels+0xd0>
60100b6e:	2000      	mov	r0, #0
60100b70:	2107      	mov	r1, #7
60100b72:	4b25      	ldr	r3, [pc, #148]	(60100c08 <PROGRAM+0xa60>)
60100b74:	fca7f000 	bl	601014c6 <PROGRAM+0x131e>
60100b78:	4f1e      	ldr	r7, [pc, #120]	(60100bf4 <PROGRAM+0xa4c>)
60100b7a:	2280      	mov	r2, #128
60100b7c:	00d2      	lsl	r2, r2, #3
60100b7e:	1c13      	mov	r3, r2		(add r3, r2, #0)
60100b80:	4e22      	ldr	r6, [pc, #136]	(60100c0c <PROGRAM+0xa64>)
60100b82:	9500      	str	r5, [sp, #0]
60100b84:	4922      	ldr	r1, [pc, #136]	(60100c10 <PROGRAM+0xa68>)
60100b86:	1c38      	mov	r0, r7		(add r0, r7, #0)
60100b88:	fca0f000 	bl	601014cc <PROGRAM+0x1324>
60100b8c:	ac05      	add	r4, sp, #20
60100b8e:	2100      	mov	r1, #0
60100b90:	2208      	mov	r2, #8
60100b92:	4b16      	ldr	r3, [pc, #88]	(60100bec <PROGRAM+0xa44>)
60100b94:	481f      	ldr	r0, [pc, #124]	(60100c14 <PROGRAM+0xa6c>)
60100b96:	fc96f000 	bl	601014c6 <PROGRAM+0x131e>
60100b9a:	ad03      	add	r5, sp, #12
60100b9c:	4b1e      	ldr	r3, [pc, #120]	(60100c18 <PROGRAM+0xa70>)
60100b9e:	1c20      	mov	r0, r4		(add r0, r4, #0)
60100ba0:	fc91f000 	bl	601014c6 <PROGRAM+0x131e>
60100ba4:	4b1d      	ldr	r3, [pc, #116]	(60100c1c <PROGRAM+0xa74>)
60100ba6:	1c28      	mov	r0, r5		(add r0, r5, #0)
60100ba8:	fc8df000 	bl	601014c6 <PROGRAM+0x131e>
60100bac:	78a1      	ldrb	r1, [r4, #2]
60100bae:	7822      	ldrb	r2, [r4, #0]
60100bb0:	7863      	ldrb	r3, [r4, #1]
60100bb2:	9100      	str	r1, [sp, #0]
60100bb4:	491a      	ldr	r1, [pc, #104]	(60100c20 <PROGRAM+0xa78>)
60100bb6:	1878      	add	r0, r7, r1
60100bb8:	491a      	ldr	r1, [pc, #104]	(60100c24 <PROGRAM+0xa7c>)
60100bba:	fc87f000 	bl	601014cc <PROGRAM+0x1324>
60100bbe:	9903      	ldr	r1, [sp, #12]
60100bc0:	792a      	ldrb	r2, [r5, #4]
60100bc2:	796b      	ldrb	r3, [r5, #5]
60100bc4:	9100      	str	r1, [sp, #0]
60100bc6:	4918      	ldr	r1, [pc, #96]	(60100c28 <PROGRAM+0xa80>)
60100bc8:	1878      	add	r0, r7, r1
60100bca:	4918      	ldr	r1, [pc, #96]	(60100c2c <PROGRAM+0xa84>)
60100bcc:	fc7ef000 	bl	601014cc <PROGRAM+0x1324>
60100bd0:	1c38      	mov	r0, r7		(add r0, r7, #0)
60100bd2:	1c21      	mov	r1, r4		(add r1, r4, #0)
60100bd4:	fc98f7ff 	bl	60100508 <store_input_data>
60100bd8:	ff0af7ff 	bl	601009f0 <list_db_contents>
60100bdc:	e7b0      	b	60100b40 <ScanLabels+0x38>
60100bde:	b006      	add	sp, #24
60100be0:	bcf0      	pop	{r4, r5, r6, r7}
60100be2:	bc01      	pop	{r0}
60100be4:	4700      	bx	r0
60100be6:	0000      	lsl	r0, r0, #0
60100be8:	0401      	lsl	r1, r0, #16
60100bea:	0000      	lsl	r0, r0, #0
60100bec:	3cf8      	sub	r4, #248
60100bee:	6010      	str	r0, [r2, #0]
60100bf0:	1d60      	add	r0, r4, #5
60100bf2:	6200      	str	r0, [r0, #32]
60100bf4:	1938      	add	r0, r7, r4
60100bf6:	6200      	str	r0, [r0, #32]
60100bf8:	3510      	add	r5, #16
60100bfa:	6010      	str	r0, [r2, #0]
60100bfc:	3668      	add	r6, #104
60100bfe:	6010      	str	r0, [r2, #0]
60100c00:	2215      	mov	r2, #21
60100c02:	6010      	str	r0, [r2, #0]
60100c04:	25cd      	mov	r5, #205
60100c06:	6010      	str	r0, [r2, #0]
60100c08:	35a8      	add	r5, #168
60100c0a:	6010      	str	r0, [r2, #0]
60100c0c:	3ef0      	sub	r6, #240
60100c0e:	6010      	str	r0, [r2, #0]
60100c10:	719c      	strb	r4, [r3, #6]
60100c12:	6010      	str	r0, [r2, #0]
60100c14:	1d58      	add	r0, r3, #5
60100c16:	6200      	str	r0, [r0, #32]
60100c18:	3598      	add	r5, #152
60100c1a:	6010      	str	r0, [r2, #0]
60100c1c:	3570      	add	r5, #112
60100c1e:	6010      	str	r0, [r2, #0]
60100c20:	0409      	lsl	r1, r1, #16
60100c22:	0000      	lsl	r0, r0, #0
60100c24:	73c4      	strb	r4, [r0, #15]
60100c26:	6010      	str	r0, [r2, #0]
60100c28:	0412      	lsl	r2, r2, #16
60100c2a:	0000      	lsl	r0, r0, #0
60100c2c:	73d4      	strb	r4, [r2, #15]
60100c2e:	6010      	str	r0, [r2, #0]

60100c30 <ScrollDatabase>:
60100c30:	b510      	push	{r4, lr}
60100c32:	2300      	mov	r3, #0
60100c34:	b082      	sub	sp, #8
60100c36:	9301      	str	r3, [sp, #4]
60100c38:	4837      	ldr	r0, [pc, #220]	(60100d18 <PROGRAM+0xb70>)
60100c3a:	4b38      	ldr	r3, [pc, #224]	(60100d1c <PROGRAM+0xb74>)
60100c3c:	fc43f000 	bl	601014c6 <PROGRAM+0x131e>
60100c40:	3001      	add	r0, #1
60100c42:	d107      	bne	60100c54 <ScrollDatabase+0x24>
60100c44:	4b36      	ldr	r3, [pc, #216]	(60100d20 <PROGRAM+0xb78>)
60100c46:	4837      	ldr	r0, [pc, #220]	(60100d24 <PROGRAM+0xb7c>)
60100c48:	fc3df000 	bl	601014c6 <PROGRAM+0x131e>
60100c4c:	4b36      	ldr	r3, [pc, #216]	(60100d28 <PROGRAM+0xb80>)
60100c4e:	fc3af000 	bl	601014c6 <PROGRAM+0x131e>
60100c52:	e05c      	b	60100d0e <ScrollDatabase+0xde>
60100c54:	2300      	mov	r3, #0
60100c56:	4835      	ldr	r0, [pc, #212]	(60100d2c <PROGRAM+0xb84>)
60100c58:	4669      	mov	r1, sp
60100c5a:	aa01      	add	r2, sp, #4
60100c5c:	9300      	str	r3, [sp, #0]
60100c5e:	fe59f7ff 	bl	60100914 <get_record>
60100c62:	2800      	cmp	r0, #0
60100c64:	d053      	beq	60100d0e <ScrollDatabase+0xde>
60100c66:	4c32      	ldr	r4, [pc, #200]	(60100d30 <PROGRAM+0xb88>)
60100c68:	6823      	ldr	r3, [r4, #0]
60100c6a:	6899      	ldr	r1, [r3, #8]
60100c6c:	688b      	ldr	r3, [r1, #8]
60100c6e:	1e58      	sub	r0, r3, #1
60100c70:	6088      	str	r0, [r1, #8]
60100c72:	2800      	cmp	r0, #0
60100c74:	da15      	bge	60100ca2 <ScrollDatabase+0x72>
60100c76:	698b      	ldr	r3, [r1, #24]
60100c78:	4298      	cmp	r0, r3
60100c7a:	db0d      	blt	60100c98 <ScrollDatabase+0x68>
60100c7c:	680a      	ldr	r2, [r1, #0]
60100c7e:	230c      	mov	r3, #12
60100c80:	7013      	strb	r3, [r2, #0]
60100c82:	6823      	ldr	r3, [r4, #0]
60100c84:	6899      	ldr	r1, [r3, #8]
60100c86:	680a      	ldr	r2, [r1, #0]
60100c88:	7813      	ldrb	r3, [r2, #0]
60100c8a:	2b0a      	cmp	r3, #10
60100c8c:	d002      	beq	60100c94 <ScrollDatabase+0x64>
60100c8e:	1c53      	add	r3, r2, #1
60100c90:	600b      	str	r3, [r1, #0]
60100c92:	e00e      	b	60100cb2 <ScrollDatabase+0x82>
60100c94:	200a      	mov	r0, #10
60100c96:	e000      	b	60100c9a <ScrollDatabase+0x6a>
60100c98:	200c      	mov	r0, #12
60100c9a:	4b26      	ldr	r3, [pc, #152]	(60100d34 <PROGRAM+0xb8c>)
60100c9c:	fc13f000 	bl	601014c6 <PROGRAM+0x131e>
60100ca0:	e007      	b	60100cb2 <ScrollDatabase+0x82>
60100ca2:	680a      	ldr	r2, [r1, #0]
60100ca4:	230c      	mov	r3, #12
60100ca6:	7013      	strb	r3, [r2, #0]
60100ca8:	6823      	ldr	r3, [r4, #0]
60100caa:	689a      	ldr	r2, [r3, #8]
60100cac:	6813      	ldr	r3, [r2, #0]
60100cae:	3301      	add	r3, #1
60100cb0:	6013      	str	r3, [r2, #0]
60100cb2:	481e      	ldr	r0, [pc, #120]	(60100d2c <PROGRAM+0xb84>)
60100cb4:	9900      	ldr	r1, [sp, #0]
60100cb6:	9a01      	ldr	r2, [sp, #4]
60100cb8:	fe04f7ff 	bl	601008c4 <display_scroll_data>
60100cbc:	4b1a      	ldr	r3, [pc, #104]	(60100d28 <PROGRAM+0xb80>)
60100cbe:	fc02f000 	bl	601014c6 <PROGRAM+0x131e>
60100cc2:	3880      	sub	r0, #128
60100cc4:	2807      	cmp	r0, #7
60100cc6:	d81b      	bhi	60100d00 <ScrollDatabase+0xd0>
60100cc8:	2301      	mov	r3, #1
60100cca:	4083      	lsl	r3, r0
60100ccc:	1c18      	mov	r0, r3		(add r0, r3, #0)
60100cce:	2342      	mov	r3, #66
60100cd0:	4218      	tst	r0, r3
60100cd2:	d10e      	bne	60100cf2 <ScrollDatabase+0xc2>
60100cd4:	2384      	mov	r3, #132
60100cd6:	4218      	tst	r0, r3
60100cd8:	d103      	bne	60100ce2 <ScrollDatabase+0xb2>
60100cda:	2311      	mov	r3, #17
60100cdc:	4218      	tst	r0, r3
60100cde:	d116      	bne	60100d0e <ScrollDatabase+0xde>
60100ce0:	e00e      	b	60100d00 <ScrollDatabase+0xd0>
60100ce2:	9b00      	ldr	r3, [sp, #0]
60100ce4:	9a01      	ldr	r2, [sp, #4]
60100ce6:	3301      	add	r3, #1
60100ce8:	9300      	str	r3, [sp, #0]
60100cea:	4293      	cmp	r3, r2
60100cec:	db08      	blt	60100d00 <ScrollDatabase+0xd0>
60100cee:	1e53      	sub	r3, r2, #1
60100cf0:	e005      	b	60100cfe <ScrollDatabase+0xce>
60100cf2:	9b00      	ldr	r3, [sp, #0]
60100cf4:	3b01      	sub	r3, #1
60100cf6:	9300      	str	r3, [sp, #0]
60100cf8:	2b00      	cmp	r3, #0
60100cfa:	da01      	bge	60100d00 <ScrollDatabase+0xd0>
60100cfc:	2300      	mov	r3, #0
60100cfe:	9300      	str	r3, [sp, #0]
60100d00:	480a      	ldr	r0, [pc, #40]	(60100d2c <PROGRAM+0xb84>)
60100d02:	4669      	mov	r1, sp
60100d04:	aa01      	add	r2, sp, #4
60100d06:	fe05f7ff 	bl	60100914 <get_record>
60100d0a:	2800      	cmp	r0, #0
60100d0c:	d1d1      	bne	60100cb2 <ScrollDatabase+0x82>
60100d0e:	b002      	add	sp, #8
60100d10:	bc10      	pop	{r4}
60100d12:	bc01      	pop	{r0}
60100d14:	4700      	bx	r0
60100d16:	0000      	lsl	r0, r0, #0
60100d18:	7208      	strb	r0, [r1, #8]
60100d1a:	6010      	str	r0, [r2, #0]
60100d1c:	3560      	add	r5, #96
60100d1e:	6010      	str	r0, [r2, #0]
60100d20:	3d70      	sub	r5, #112
60100d22:	6010      	str	r0, [r2, #0]
60100d24:	73e4      	strb	r4, [r4, #15]
60100d26:	6010      	str	r0, [r2, #0]
60100d28:	2215      	mov	r2, #21
60100d2a:	6010      	str	r0, [r2, #0]
60100d2c:	2164      	mov	r1, #100
60100d2e:	6200      	str	r0, [r0, #32]
60100d30:	0414      	lsl	r4, r2, #16
60100d32:	6200      	str	r0, [r0, #32]
60100d34:	38e0      	sub	r0, #224
60100d36:	6010      	str	r0, [r2, #0]

60100d38 <SelectPort>:
60100d38:	b530      	push	{r4, r5, lr}
60100d3a:	b088      	sub	sp, #32
60100d3c:	4b09      	ldr	r3, [pc, #36]	(60100d64 <PROGRAM+0xbbc>)
60100d3e:	466a      	mov	r2, sp
60100d40:	cb32      	ldmia	r3!,{r1, r4, r5}
60100d42:	c232      	stmia	r2!,{r1, r4, r5}
60100d44:	cb32      	ldmia	r3!,{r1, r4, r5}
60100d46:	c232      	stmia	r2!,{r1, r4, r5}
60100d48:	4668      	mov	r0, sp
60100d4a:	cb12      	ldmia	r3!,{r1, r4}
60100d4c:	c212      	stmia	r2!,{r1, r4}
60100d4e:	4b06      	ldr	r3, [pc, #24]	(60100d68 <PROGRAM+0xbc0>)
60100d50:	2103      	mov	r1, #3
60100d52:	2200      	mov	r2, #0
60100d54:	4c05      	ldr	r4, [pc, #20]	(60100d6c <PROGRAM+0xbc4>)
60100d56:	fbb7f000 	bl	601014c8 <PROGRAM+0x1320>
60100d5a:	b008      	add	sp, #32
60100d5c:	bc30      	pop	{r4, r5}
60100d5e:	bc01      	pop	{r0}
60100d60:	4700      	bx	r0
60100d62:	0000      	lsl	r0, r0, #0
60100d64:	691c      	ldr	r4, [r3, #16]
60100d66:	6010      	str	r0, [r2, #0]
60100d68:	2a74      	cmp	r2, #116
60100d6a:	6200      	str	r0, [r0, #32]
60100d6c:	332d      	add	r3, #45
60100d6e:	6010      	str	r0, [r2, #0]

60100d70 <SelectBaudrate>:
60100d70:	b510      	push	{r4, lr}
60100d72:	b090      	sub	sp, #64
60100d74:	4909      	ldr	r1, [pc, #36]	(60100d9c <PROGRAM+0xbf4>)
60100d76:	4668      	mov	r0, sp
60100d78:	2240      	mov	r2, #64
60100d7a:	4b09      	ldr	r3, [pc, #36]	(60100da0 <PROGRAM+0xbf8>)
60100d7c:	fba3f000 	bl	601014c6 <PROGRAM+0x131e>
60100d80:	4668      	mov	r0, sp
60100d82:	4b08      	ldr	r3, [pc, #32]	(60100da4 <PROGRAM+0xbfc>)
60100d84:	2108      	mov	r1, #8
60100d86:	2200      	mov	r2, #0
60100d88:	4c07      	ldr	r4, [pc, #28]	(60100da8 <PROGRAM+0xc00>)
60100d8a:	fb9df000 	bl	601014c8 <PROGRAM+0x1320>
60100d8e:	fa53f7ff 	bl	60100238 <set_baudrate>
60100d92:	b010      	add	sp, #64
60100d94:	bc10      	pop	{r4}
60100d96:	bc01      	pop	{r0}
60100d98:	4700      	bx	r0
60100d9a:	0000      	lsl	r0, r0, #0
60100d9c:	693c      	ldr	r4, [r7, #16]
60100d9e:	6010      	str	r0, [r2, #0]
60100da0:	3ce0      	sub	r4, #224
60100da2:	6010      	str	r0, [r2, #0]
60100da4:	2a84      	cmp	r2, #132
60100da6:	6200      	str	r0, [r0, #32]
60100da8:	332d      	add	r3, #45
60100daa:	6010      	str	r0, [r2, #0]

60100dac <SelectParity>:
60100dac:	b530      	push	{r4, r5, lr}
60100dae:	b088      	sub	sp, #32
60100db0:	4b0a      	ldr	r3, [pc, #40]	(60100ddc <PROGRAM+0xc34>)
60100db2:	466a      	mov	r2, sp
60100db4:	cb32      	ldmia	r3!,{r1, r4, r5}
60100db6:	c232      	stmia	r2!,{r1, r4, r5}
60100db8:	cb32      	ldmia	r3!,{r1, r4, r5}
60100dba:	c232      	stmia	r2!,{r1, r4, r5}
60100dbc:	4668      	mov	r0, sp
60100dbe:	cb12      	ldmia	r3!,{r1, r4}
60100dc0:	c212      	stmia	r2!,{r1, r4}
60100dc2:	4b07      	ldr	r3, [pc, #28]	(60100de0 <PROGRAM+0xc38>)
60100dc4:	2104      	mov	r1, #4
60100dc6:	2200      	mov	r2, #0
60100dc8:	4c06      	ldr	r4, [pc, #24]	(60100de4 <PROGRAM+0xc3c>)
60100dca:	fb7df000 	bl	601014c8 <PROGRAM+0x1320>
60100dce:	fa17f7ff 	bl	60100200 <set_parity>
60100dd2:	b008      	add	sp, #32
60100dd4:	bc30      	pop	{r4, r5}
60100dd6:	bc01      	pop	{r0}
60100dd8:	4700      	bx	r0
60100dda:	0000      	lsl	r0, r0, #0
60100ddc:	697c      	ldr	r4, [r7, #20]
60100dde:	6010      	str	r0, [r2, #0]
60100de0:	2a70      	cmp	r2, #112
60100de2:	6200      	str	r0, [r0, #32]
60100de4:	332d      	add	r3, #45
60100de6:	6010      	str	r0, [r2, #0]

60100de8 <SelectDatabits>:
60100de8:	b530      	push	{r4, r5, lr}
60100dea:	b086      	sub	sp, #24
60100dec:	4b09      	ldr	r3, [pc, #36]	(60100e14 <PROGRAM+0xc6c>)
60100dee:	466a      	mov	r2, sp
60100df0:	cb32      	ldmia	r3!,{r1, r4, r5}
60100df2:	c232      	stmia	r2!,{r1, r4, r5}
60100df4:	4668      	mov	r0, sp
60100df6:	cb32      	ldmia	r3!,{r1, r4, r5}
60100df8:	c232      	stmia	r2!,{r1, r4, r5}
60100dfa:	4b07      	ldr	r3, [pc, #28]	(60100e18 <PROGRAM+0xc70>)
60100dfc:	2103      	mov	r1, #3
60100dfe:	2200      	mov	r2, #0
60100e00:	4c06      	ldr	r4, [pc, #24]	(60100e1c <PROGRAM+0xc74>)
60100e02:	fb61f000 	bl	601014c8 <PROGRAM+0x1320>
60100e06:	f9e5f7ff 	bl	601001d4 <set_databits>
60100e0a:	b006      	add	sp, #24
60100e0c:	bc30      	pop	{r4, r5}
60100e0e:	bc01      	pop	{r0}
60100e10:	4700      	bx	r0
60100e12:	0000      	lsl	r0, r0, #0
60100e14:	699c      	ldr	r4, [r3, #24]
60100e16:	6010      	str	r0, [r2, #0]
60100e18:	2a68      	cmp	r2, #104
60100e1a:	6200      	str	r0, [r0, #32]
60100e1c:	332d      	add	r3, #45
60100e1e:	6010      	str	r0, [r2, #0]

60100e20 <SelectStopbits>:
60100e20:	b530      	push	{r4, r5, lr}
60100e22:	b086      	sub	sp, #24
60100e24:	4b09      	ldr	r3, [pc, #36]	(60100e4c <PROGRAM+0xca4>)
60100e26:	466a      	mov	r2, sp
60100e28:	cb32      	ldmia	r3!,{r1, r4, r5}
60100e2a:	c232      	stmia	r2!,{r1, r4, r5}
60100e2c:	4668      	mov	r0, sp
60100e2e:	cb32      	ldmia	r3!,{r1, r4, r5}
60100e30:	c232      	stmia	r2!,{r1, r4, r5}
60100e32:	4b07      	ldr	r3, [pc, #28]	(60100e50 <PROGRAM+0xca8>)
60100e34:	2103      	mov	r1, #3
60100e36:	2200      	mov	r2, #0
60100e38:	4c06      	ldr	r4, [pc, #24]	(60100e54 <PROGRAM+0xcac>)
60100e3a:	fb45f000 	bl	601014c8 <PROGRAM+0x1320>
60100e3e:	f9b3f7ff 	bl	601001a8 <_eappstart>
60100e42:	b006      	add	sp, #24
60100e44:	bc30      	pop	{r4, r5}
60100e46:	bc01      	pop	{r0}
60100e48:	4700      	bx	r0
60100e4a:	0000      	lsl	r0, r0, #0
60100e4c:	69b4      	ldr	r4, [r6, #24]
60100e4e:	6010      	str	r0, [r2, #0]
60100e50:	2a7c      	cmp	r2, #124
60100e52:	6200      	str	r0, [r0, #32]
60100e54:	332d      	add	r3, #45
60100e56:	6010      	str	r0, [r2, #0]

60100e58 <ComPortSettings>:
60100e58:	b510      	push	{r4, lr}
60100e5a:	b092      	sub	sp, #72
60100e5c:	2248      	mov	r2, #72
60100e5e:	4907      	ldr	r1, [pc, #28]	(60100e7c <PROGRAM+0xcd4>)
60100e60:	4668      	mov	r0, sp
60100e62:	4b07      	ldr	r3, [pc, #28]	(60100e80 <PROGRAM+0xcd8>)
60100e64:	fb2ff000 	bl	601014c6 <PROGRAM+0x131e>
60100e68:	4668      	mov	r0, sp
60100e6a:	2106      	mov	r1, #6
60100e6c:	4b05      	ldr	r3, [pc, #20]	(60100e84 <PROGRAM+0xcdc>)
60100e6e:	fb2af000 	bl	601014c6 <PROGRAM+0x131e>
60100e72:	b012      	add	sp, #72
60100e74:	bc10      	pop	{r4}
60100e76:	bc01      	pop	{r0}
60100e78:	4700      	bx	r0
60100e7a:	0000      	lsl	r0, r0, #0
60100e7c:	69cc      	ldr	r4, [r1, #28]
60100e7e:	6010      	str	r0, [r2, #0]
60100e80:	3ce0      	sub	r4, #224
60100e82:	6010      	str	r0, [r2, #0]
60100e84:	30dd      	add	r0, #221
60100e86:	6010      	str	r0, [r2, #0]

60100e88 <SelectProtocol>:
60100e88:	b530      	push	{r4, r5, lr}
60100e8a:	b086      	sub	sp, #24
60100e8c:	4b08      	ldr	r3, [pc, #32]	(60100eb0 <PROGRAM+0xd08>)
60100e8e:	466a      	mov	r2, sp
60100e90:	cb32      	ldmia	r3!,{r1, r4, r5}
60100e92:	c232      	stmia	r2!,{r1, r4, r5}
60100e94:	4668      	mov	r0, sp
60100e96:	cb32      	ldmia	r3!,{r1, r4, r5}
60100e98:	c232      	stmia	r2!,{r1, r4, r5}
60100e9a:	4b06      	ldr	r3, [pc, #24]	(60100eb4 <PROGRAM+0xd0c>)
60100e9c:	2103      	mov	r1, #3
60100e9e:	2200      	mov	r2, #0
60100ea0:	4c05      	ldr	r4, [pc, #20]	(60100eb8 <PROGRAM+0xd10>)
60100ea2:	fb11f000 	bl	601014c8 <PROGRAM+0x1320>
60100ea6:	b006      	add	sp, #24
60100ea8:	bc30      	pop	{r4, r5}
60100eaa:	bc01      	pop	{r0}
60100eac:	4700      	bx	r0
60100eae:	0000      	lsl	r0, r0, #0
60100eb0:	6a14      	ldr	r4, [r2, #32]
60100eb2:	6010      	str	r0, [r2, #0]
60100eb4:	2a6c      	cmp	r2, #108
60100eb6:	6200      	str	r0, [r0, #32]
60100eb8:	332d      	add	r3, #45
60100eba:	6010      	str	r0, [r2, #0]

60100ebc <ChangeContrast>:
60100ebc:	b530      	push	{r4, r5, lr}
60100ebe:	b082      	sub	sp, #8
60100ec0:	fae6f7ff 	bl	60100490 <GetMaxCharsXPos>
60100ec4:	2001      	mov	r0, #1
60100ec6:	4b2a      	ldr	r3, [pc, #168]	(60100f70 <PROGRAM+0xdc8>)
60100ec8:	4240      	neg	r0, r0
60100eca:	fafcf000 	bl	601014c6 <PROGRAM+0x131e>
60100ece:	4c29      	ldr	r4, [pc, #164]	(60100f74 <PROGRAM+0xdcc>)
60100ed0:	6823      	ldr	r3, [r4, #0]
60100ed2:	6899      	ldr	r1, [r3, #8]
60100ed4:	688b      	ldr	r3, [r1, #8]
60100ed6:	1c05      	mov	r5, r0		(add r5, r0, #0)
60100ed8:	1e58      	sub	r0, r3, #1
60100eda:	6088      	str	r0, [r1, #8]
60100edc:	2800      	cmp	r0, #0
60100ede:	da15      	bge	60100f0c <ChangeContrast+0x50>
60100ee0:	698b      	ldr	r3, [r1, #24]
60100ee2:	4298      	cmp	r0, r3
60100ee4:	db0d      	blt	60100f02 <ChangeContrast+0x46>
60100ee6:	680a      	ldr	r2, [r1, #0]
60100ee8:	230c      	mov	r3, #12
60100eea:	7013      	strb	r3, [r2, #0]
60100eec:	6823      	ldr	r3, [r4, #0]
60100eee:	6899      	ldr	r1, [r3, #8]
60100ef0:	680a      	ldr	r2, [r1, #0]
60100ef2:	7813      	ldrb	r3, [r2, #0]
60100ef4:	2b0a      	cmp	r3, #10
60100ef6:	d002      	beq	60100efe <ChangeContrast+0x42>
60100ef8:	1c53      	add	r3, r2, #1
60100efa:	600b      	str	r3, [r1, #0]
60100efc:	e00e      	b	60100f1c <ChangeContrast+0x60>
60100efe:	200a      	mov	r0, #10
60100f00:	e000      	b	60100f04 <ChangeContrast+0x48>
60100f02:	200c      	mov	r0, #12
60100f04:	4b1c      	ldr	r3, [pc, #112]	(60100f78 <PROGRAM+0xdd0>)
60100f06:	fadef000 	bl	601014c6 <PROGRAM+0x131e>
60100f0a:	e007      	b	60100f1c <ChangeContrast+0x60>
60100f0c:	680a      	ldr	r2, [r1, #0]
60100f0e:	230c      	mov	r3, #12
60100f10:	7013      	strb	r3, [r2, #0]
60100f12:	6823      	ldr	r3, [r4, #0]
60100f14:	689a      	ldr	r2, [r3, #8]
60100f16:	6813      	ldr	r3, [r2, #0]
60100f18:	3301      	add	r3, #1
60100f1a:	6013      	str	r3, [r2, #0]
60100f1c:	4b17      	ldr	r3, [pc, #92]	(60100f7c <PROGRAM+0xdd4>)
60100f1e:	4818      	ldr	r0, [pc, #96]	(60100f80 <PROGRAM+0xdd8>)
60100f20:	fad1f000 	bl	601014c6 <PROGRAM+0x131e>
60100f24:	4817      	ldr	r0, [pc, #92]	(60100f84 <PROGRAM+0xddc>)
60100f26:	4b18      	ldr	r3, [pc, #96]	(60100f88 <PROGRAM+0xde0>)
60100f28:	facdf000 	bl	601014c6 <PROGRAM+0x131e>
60100f2c:	2383      	mov	r3, #131
60100f2e:	9300      	str	r3, [sp, #0]
60100f30:	2380      	mov	r3, #128
60100f32:	9301      	str	r3, [sp, #4]
60100f34:	2005      	mov	r0, #5
60100f36:	2181      	mov	r1, #129
60100f38:	2282      	mov	r2, #130
60100f3a:	2384      	mov	r3, #132
60100f3c:	4c13      	ldr	r4, [pc, #76]	(60100f8c <PROGRAM+0xde4>)
60100f3e:	fac3f000 	bl	601014c8 <PROGRAM+0x1320>
60100f42:	3880      	sub	r0, #128
60100f44:	2804      	cmp	r0, #4
60100f46:	d80b      	bhi	60100f60 <ChangeContrast+0xa4>
60100f48:	4a11      	ldr	r2, [pc, #68]	(60100f90 <PROGRAM+0xde8>)
60100f4a:	0083      	lsl	r3, r0, #2
60100f4c:	589b      	ldr	r3, [r3, r2]
60100f4e:	469f      	mov	pc, r3
60100f50:	3501      	add	r5, #1
60100f52:	2d1f      	cmp	r5, #31
60100f54:	dd04      	ble	60100f60 <ChangeContrast+0xa4>
60100f56:	251f      	mov	r5, #31
60100f58:	e002      	b	60100f60 <ChangeContrast+0xa4>
60100f5a:	3d01      	sub	r5, #1
60100f5c:	d500      	bpl	60100f60 <ChangeContrast+0xa4>
60100f5e:	2500      	mov	r5, #0
60100f60:	4b03      	ldr	r3, [pc, #12]	(60100f70 <PROGRAM+0xdc8>)
60100f62:	1c28      	mov	r0, r5		(add r0, r5, #0)
60100f64:	e7e0      	b	60100f28 <ChangeContrast+0x6c>
60100f66:	b002      	add	sp, #8
60100f68:	bc30      	pop	{r4, r5}
60100f6a:	bc01      	pop	{r0}
60100f6c:	4700      	bx	r0
60100f6e:	0000      	lsl	r0, r0, #0
60100f70:	34f8      	add	r4, #248
60100f72:	6010      	str	r0, [r2, #0]
60100f74:	0414      	lsl	r4, r2, #16
60100f76:	6200      	str	r0, [r0, #32]
60100f78:	38e0      	sub	r0, #224
60100f7a:	6010      	str	r0, [r2, #0]
60100f7c:	3da0      	sub	r5, #160
60100f7e:	6010      	str	r0, [r2, #0]
60100f80:	74fc      	strb	r4, [r7, #19]
60100f82:	6010      	str	r0, [r2, #0]
60100f84:	7520      	strb	r0, [r4, #20]
60100f86:	6010      	str	r0, [r2, #0]
60100f88:	3d70      	sub	r5, #112
60100f8a:	6010      	str	r0, [r2, #0]
60100f8c:	22a5      	mov	r2, #165
60100f8e:	6010      	str	r0, [r2, #0]
60100f90:	6a2c      	ldr	r4, [r5, #32]
60100f92:	6010      	str	r0, [r2, #0]

60100f94 <SetBarcodes>:
60100f94:	b510      	push	{r4, lr}
60100f96:	b0ac      	sub	sp, #176
60100f98:	4909      	ldr	r1, [pc, #36]	(60100fc0 <PROGRAM+0xe18>)
60100f9a:	4668      	mov	r0, sp
60100f9c:	22b0      	mov	r2, #176
60100f9e:	4b09      	ldr	r3, [pc, #36]	(60100fc4 <PROGRAM+0xe1c>)
60100fa0:	fa91f000 	bl	601014c6 <PROGRAM+0x131e>
60100fa4:	4668      	mov	r0, sp
60100fa6:	4b08      	ldr	r3, [pc, #32]	(60100fc8 <PROGRAM+0xe20>)
60100fa8:	2116      	mov	r1, #22
60100faa:	2202      	mov	r2, #2
60100fac:	4c07      	ldr	r4, [pc, #28]	(60100fcc <PROGRAM+0xe24>)
60100fae:	fa8bf000 	bl	601014c8 <PROGRAM+0x1320>
60100fb2:	f975f7ff 	bl	601002a0 <set_barcodes>
60100fb6:	b02c      	add	sp, #176
60100fb8:	bc10      	pop	{r4}
60100fba:	bc01      	pop	{r0}
60100fbc:	4700      	bx	r0
60100fbe:	0000      	lsl	r0, r0, #0
60100fc0:	6a40      	ldr	r0, [r0, #36]
60100fc2:	6010      	str	r0, [r2, #0]
60100fc4:	3ce0      	sub	r4, #224
60100fc6:	6010      	str	r0, [r2, #0]
60100fc8:	2a78      	cmp	r2, #120
60100fca:	6200      	str	r0, [r0, #32]
60100fcc:	332d      	add	r3, #45
60100fce:	6010      	str	r0, [r2, #0]

60100fd0 <AvailableMemory>:
60100fd0:	b500      	push	{lr}
60100fd2:	4b06      	ldr	r3, [pc, #24]	(60100fec <PROGRAM+0xe44>)
60100fd4:	fa77f000 	bl	601014c6 <PROGRAM+0x131e>
60100fd8:	4b05      	ldr	r3, [pc, #20]	(60100ff0 <PROGRAM+0xe48>)
60100fda:	1c01      	mov	r1, r0		(add r1, r0, #0)
60100fdc:	4805      	ldr	r0, [pc, #20]	(60100ff4 <PROGRAM+0xe4c>)
60100fde:	fa72f000 	bl	601014c6 <PROGRAM+0x131e>
60100fe2:	4b05      	ldr	r3, [pc, #20]	(60100ff8 <PROGRAM+0xe50>)
60100fe4:	fa6ff000 	bl	601014c6 <PROGRAM+0x131e>
60100fe8:	bc01      	pop	{r0}
60100fea:	4700      	bx	r0
60100fec:	3500      	add	r5, #0
60100fee:	6010      	str	r0, [r2, #0]
60100ff0:	3d70      	sub	r5, #112
60100ff2:	6010      	str	r0, [r2, #0]
60100ff4:	7688      	strb	r0, [r1, #26]
60100ff6:	6010      	str	r0, [r2, #0]
60100ff8:	2215      	mov	r2, #21
60100ffa:	6010      	str	r0, [r2, #0]

60100ffc <_SystemMenu>:
60100ffc:	b510      	push	{r4, lr}
60100ffe:	b092      	sub	sp, #72
60101000:	2248      	mov	r2, #72
60101002:	4907      	ldr	r1, [pc, #28]	(60101020 <PROGRAM+0xe78>)
60101004:	4668      	mov	r0, sp
60101006:	4b07      	ldr	r3, [pc, #28]	(60101024 <PROGRAM+0xe7c>)
60101008:	fa5df000 	bl	601014c6 <PROGRAM+0x131e>
6010100c:	4668      	mov	r0, sp
6010100e:	2106      	mov	r1, #6
60101010:	4b05      	ldr	r3, [pc, #20]	(60101028 <PROGRAM+0xe80>)
60101012:	fa58f000 	bl	601014c6 <PROGRAM+0x131e>
60101016:	b012      	add	sp, #72
60101018:	bc10      	pop	{r4}
6010101a:	bc01      	pop	{r0}
6010101c:	4700      	bx	r0
6010101e:	0000      	lsl	r0, r0, #0
60101020:	6af0      	ldr	r0, [r6, #44]
60101022:	6010      	str	r0, [r2, #0]
60101024:	3ce0      	sub	r4, #224
60101026:	6010      	str	r0, [r2, #0]
60101028:	30dd      	add	r0, #221
6010102a:	6010      	str	r0, [r2, #0]

6010102c <DeleteDatabase>:
6010102c:	b500      	push	{lr}
6010102e:	4b09      	ldr	r3, [pc, #36]	(60101054 <PROGRAM+0xeac>)
60101030:	4809      	ldr	r0, [pc, #36]	(60101058 <PROGRAM+0xeb0>)
60101032:	fa48f000 	bl	601014c6 <PROGRAM+0x131e>
60101036:	2002      	mov	r0, #2
60101038:	2183      	mov	r1, #131
6010103a:	2284      	mov	r2, #132
6010103c:	4b07      	ldr	r3, [pc, #28]	(6010105c <PROGRAM+0xeb4>)
6010103e:	fa42f000 	bl	601014c6 <PROGRAM+0x131e>
60101042:	2883      	cmp	r0, #131
60101044:	d103      	bne	6010104e <DeleteDatabase+0x22>
60101046:	4806      	ldr	r0, [pc, #24]	(60101060 <PROGRAM+0xeb8>)
60101048:	4b06      	ldr	r3, [pc, #24]	(60101064 <PROGRAM+0xebc>)
6010104a:	fa3cf000 	bl	601014c6 <PROGRAM+0x131e>
6010104e:	bc01      	pop	{r0}
60101050:	4700      	bx	r0
60101052:	0000      	lsl	r0, r0, #0
60101054:	3d70      	sub	r5, #112
60101056:	6010      	str	r0, [r2, #0]
60101058:	76e8      	strb	r0, [r5, #27]
6010105a:	6010      	str	r0, [r2, #0]
6010105c:	22a5      	mov	r2, #165
6010105e:	6010      	str	r0, [r2, #0]
60101060:	7208      	strb	r0, [r1, #8]
60101062:	6010      	str	r0, [r2, #0]
60101064:	3dd0      	sub	r5, #208
60101066:	6010      	str	r0, [r2, #0]

60101068 <TransmitData>:
60101068:	b530      	push	{r4, r5, lr}
6010106a:	b081      	sub	sp, #4
6010106c:	485a      	ldr	r0, [pc, #360]	(601011d8 <PROGRAM+0x1030>)
6010106e:	4b5b      	ldr	r3, [pc, #364]	(601011dc <PROGRAM+0x1034>)
60101070:	fa29f000 	bl	601014c6 <PROGRAM+0x131e>
60101074:	3001      	add	r0, #1
60101076:	d101      	bne	6010107c <TransmitData+0x14>
60101078:	4859      	ldr	r0, [pc, #356]	(601011e0 <PROGRAM+0x1038>)
6010107a:	e007      	b	6010108c <TransmitData+0x24>
6010107c:	4b59      	ldr	r3, [pc, #356]	(601011e4 <PROGRAM+0x103c>)
6010107e:	6818      	ldr	r0, [r3, #0]
60101080:	4b59      	ldr	r3, [pc, #356]	(601011e8 <PROGRAM+0x1040>)
60101082:	fa20f000 	bl	601014c6 <PROGRAM+0x131e>
60101086:	2800      	cmp	r0, #0
60101088:	d007      	beq	6010109a <TransmitData+0x32>
6010108a:	4858      	ldr	r0, [pc, #352]	(601011ec <PROGRAM+0x1044>)
6010108c:	4b58      	ldr	r3, [pc, #352]	(601011f0 <PROGRAM+0x1048>)
6010108e:	fa1af000 	bl	601014c6 <PROGRAM+0x131e>
60101092:	4b58      	ldr	r3, [pc, #352]	(601011f4 <PROGRAM+0x104c>)
60101094:	fa17f000 	bl	601014c6 <PROGRAM+0x131e>
60101098:	e099      	b	601011ce <TransmitData+0x166>
6010109a:	4b57      	ldr	r3, [pc, #348]	(601011f8 <PROGRAM+0x1050>)
6010109c:	4857      	ldr	r0, [pc, #348]	(601011fc <PROGRAM+0x1054>)
6010109e:	fa12f000 	bl	601014c6 <PROGRAM+0x131e>
601010a2:	4b57      	ldr	r3, [pc, #348]	(60101200 <PROGRAM+0x1058>)
601010a4:	681b      	ldr	r3, [r3, #0]
601010a6:	2b02      	cmp	r3, #2
601010a8:	d118      	bne	601010dc <TransmitData+0x74>
601010aa:	4856      	ldr	r0, [pc, #344]	(60101204 <PROGRAM+0x105c>)
601010ac:	4d50      	ldr	r5, [pc, #320]	(601011f0 <PROGRAM+0x1048>)
601010ae:	fa0cf000 	bl	601014ca <PROGRAM+0x1322>
601010b2:	2303      	mov	r3, #3
601010b4:	9300      	str	r3, [sp, #0]
601010b6:	4c54      	ldr	r4, [pc, #336]	(60101208 <PROGRAM+0x1060>)
601010b8:	2384      	mov	r3, #132
601010ba:	4847      	ldr	r0, [pc, #284]	(601011d8 <PROGRAM+0x1030>)
601010bc:	4a53      	ldr	r2, [pc, #332]	(6010120c <PROGRAM+0x1064>)
601010be:	2101      	mov	r1, #1
601010c0:	fa02f000 	bl	601014c8 <PROGRAM+0x1320>
601010c4:	4b52      	ldr	r3, [pc, #328]	(60101210 <PROGRAM+0x1068>)
601010c6:	1c04      	mov	r4, r0		(add r4, r0, #0)
601010c8:	2004      	mov	r0, #4
601010ca:	f9fcf000 	bl	601014c6 <PROGRAM+0x131e>
601010ce:	2c00      	cmp	r4, #0
601010d0:	d078      	beq	601011c4 <TransmitData+0x15c>
601010d2:	1c21      	mov	r1, r4		(add r1, r4, #0)
601010d4:	484f      	ldr	r0, [pc, #316]	(60101214 <PROGRAM+0x106c>)
601010d6:	f9f8f000 	bl	601014ca <PROGRAM+0x1322>
601010da:	e010      	b	601010fe <TransmitData+0x96>
601010dc:	4c4e      	ldr	r4, [pc, #312]	(60101218 <PROGRAM+0x1070>)
601010de:	483e      	ldr	r0, [pc, #248]	(601011d8 <PROGRAM+0x1030>)
601010e0:	494e      	ldr	r1, [pc, #312]	(6010121c <PROGRAM+0x1074>)
601010e2:	1c22      	mov	r2, r4		(add r2, r4, #0)
601010e4:	4b4e      	ldr	r3, [pc, #312]	(60101220 <PROGRAM+0x1078>)
601010e6:	f9eef000 	bl	601014c6 <PROGRAM+0x131e>
601010ea:	2800      	cmp	r0, #0
601010ec:	d10b      	bne	60101106 <TransmitData+0x9e>
601010ee:	4b4d      	ldr	r3, [pc, #308]	(60101224 <PROGRAM+0x107c>)
601010f0:	f9e9f000 	bl	601014c6 <PROGRAM+0x131e>
601010f4:	4b3e      	ldr	r3, [pc, #248]	(601011f0 <PROGRAM+0x1048>)
601010f6:	1c01      	mov	r1, r0		(add r1, r0, #0)
601010f8:	484b      	ldr	r0, [pc, #300]	(60101228 <PROGRAM+0x1080>)
601010fa:	f9e4f000 	bl	601014c6 <PROGRAM+0x131e>
601010fe:	4b3d      	ldr	r3, [pc, #244]	(601011f4 <PROGRAM+0x104c>)
60101100:	f9e1f000 	bl	601014c6 <PROGRAM+0x131e>
60101104:	e05e      	b	601011c4 <TransmitData+0x15c>
60101106:	4949      	ldr	r1, [pc, #292]	(6010122c <PROGRAM+0x1084>)
60101108:	1c20      	mov	r0, r4		(add r0, r4, #0)
6010110a:	4b49      	ldr	r3, [pc, #292]	(60101230 <PROGRAM+0x1088>)
6010110c:	f9dbf000 	bl	601014c6 <PROGRAM+0x131e>
60101110:	2800      	cmp	r0, #0
60101112:	d048      	beq	601011a6 <TransmitData+0x13e>
60101114:	4c47      	ldr	r4, [pc, #284]	(60101234 <PROGRAM+0x108c>)
60101116:	6823      	ldr	r3, [r4, #0]
60101118:	6899      	ldr	r1, [r3, #8]
6010111a:	688b      	ldr	r3, [r1, #8]
6010111c:	1e58      	sub	r0, r3, #1
6010111e:	6088      	str	r0, [r1, #8]
60101120:	2800      	cmp	r0, #0
60101122:	da15      	bge	60101150 <TransmitData+0xe8>
60101124:	698b      	ldr	r3, [r1, #24]
60101126:	4298      	cmp	r0, r3
60101128:	db0d      	blt	60101146 <TransmitData+0xde>
6010112a:	680a      	ldr	r2, [r1, #0]
6010112c:	230c      	mov	r3, #12
6010112e:	7013      	strb	r3, [r2, #0]
60101130:	6823      	ldr	r3, [r4, #0]
60101132:	6899      	ldr	r1, [r3, #8]
60101134:	680a      	ldr	r2, [r1, #0]
60101136:	7813      	ldrb	r3, [r2, #0]
60101138:	2b0a      	cmp	r3, #10
6010113a:	d002      	beq	60101142 <TransmitData+0xda>
6010113c:	1c53      	add	r3, r2, #1
6010113e:	600b      	str	r3, [r1, #0]
60101140:	e00e      	b	60101160 <TransmitData+0xf8>
60101142:	200a      	mov	r0, #10
60101144:	e000      	b	60101148 <TransmitData+0xe0>
60101146:	200c      	mov	r0, #12
60101148:	4b3b      	ldr	r3, [pc, #236]	(60101238 <PROGRAM+0x1090>)
6010114a:	f9bcf000 	bl	601014c6 <PROGRAM+0x131e>
6010114e:	e007      	b	60101160 <TransmitData+0xf8>
60101150:	680a      	ldr	r2, [r1, #0]
60101152:	230c      	mov	r3, #12
60101154:	7013      	strb	r3, [r2, #0]
60101156:	6823      	ldr	r3, [r4, #0]
60101158:	689a      	ldr	r2, [r3, #8]
6010115a:	6813      	ldr	r3, [r2, #0]
6010115c:	3301      	add	r3, #1
6010115e:	6013      	str	r3, [r2, #0]
60101160:	2000      	mov	r0, #0
60101162:	2100      	mov	r1, #0
60101164:	4b35      	ldr	r3, [pc, #212]	(6010123c <PROGRAM+0x1094>)
60101166:	f9aef000 	bl	601014c6 <PROGRAM+0x131e>
6010116a:	4b2b      	ldr	r3, [pc, #172]	(60101218 <PROGRAM+0x1070>)
6010116c:	6899      	ldr	r1, [r3, #8]
6010116e:	68da      	ldr	r2, [r3, #12]
60101170:	4833      	ldr	r0, [pc, #204]	(60101240 <PROGRAM+0x1098>)
60101172:	3101      	add	r1, #1
60101174:	4b1e      	ldr	r3, [pc, #120]	(601011f0 <PROGRAM+0x1048>)
60101176:	f9a6f000 	bl	601014c6 <PROGRAM+0x131e>
6010117a:	4c2c      	ldr	r4, [pc, #176]	(6010122c <PROGRAM+0x1084>)
6010117c:	7820      	ldrb	r0, [r4, #0]
6010117e:	4b31      	ldr	r3, [pc, #196]	(60101244 <PROGRAM+0x109c>)
60101180:	f9a1f000 	bl	601014c6 <PROGRAM+0x131e>
60101184:	4b30      	ldr	r3, [pc, #192]	(60101248 <PROGRAM+0x10a0>)
60101186:	3401      	add	r4, #1
60101188:	429c      	cmp	r4, r3
6010118a:	d1f7      	bne	6010117c <TransmitData+0x114>
6010118c:	200a      	mov	r0, #10
6010118e:	4b2f      	ldr	r3, [pc, #188]	(6010124c <PROGRAM+0x10a4>)
60101190:	f999f000 	bl	601014c6 <PROGRAM+0x131e>
60101194:	4b2e      	ldr	r3, [pc, #184]	(60101250 <PROGRAM+0x10a8>)
60101196:	4820      	ldr	r0, [pc, #128]	(60101218 <PROGRAM+0x1070>)
60101198:	18e1      	add	r1, r4, r3
6010119a:	4b2e      	ldr	r3, [pc, #184]	(60101254 <PROGRAM+0x10ac>)
6010119c:	f993f000 	bl	601014c6 <PROGRAM+0x131e>
601011a0:	2800      	cmp	r0, #0
601011a2:	d00b      	beq	601011bc <TransmitData+0x154>
601011a4:	e7dc      	b	60101160 <TransmitData+0xf8>
601011a6:	4b1f      	ldr	r3, [pc, #124]	(60101224 <PROGRAM+0x107c>)
601011a8:	f98df000 	bl	601014c6 <PROGRAM+0x131e>
601011ac:	4b10      	ldr	r3, [pc, #64]	(601011f0 <PROGRAM+0x1048>)
601011ae:	1c01      	mov	r1, r0		(add r1, r0, #0)
601011b0:	4829      	ldr	r0, [pc, #164]	(60101258 <PROGRAM+0x10b0>)
601011b2:	f988f000 	bl	601014c6 <PROGRAM+0x131e>
601011b6:	4b0f      	ldr	r3, [pc, #60]	(601011f4 <PROGRAM+0x104c>)
601011b8:	f985f000 	bl	601014c6 <PROGRAM+0x131e>
601011bc:	4816      	ldr	r0, [pc, #88]	(60101218 <PROGRAM+0x1070>)
601011be:	4b27      	ldr	r3, [pc, #156]	(6010125c <PROGRAM+0x10b4>)
601011c0:	f981f000 	bl	601014c6 <PROGRAM+0x131e>
601011c4:	4b07      	ldr	r3, [pc, #28]	(601011e4 <PROGRAM+0x103c>)
601011c6:	6818      	ldr	r0, [r3, #0]
601011c8:	4b25      	ldr	r3, [pc, #148]	(60101260 <PROGRAM+0x10b8>)
601011ca:	f97cf000 	bl	601014c6 <PROGRAM+0x131e>
601011ce:	b001      	add	sp, #4
601011d0:	bc30      	pop	{r4, r5}
601011d2:	bc01      	pop	{r0}
601011d4:	4700      	bx	r0
601011d6:	0000      	lsl	r0, r0, #0
601011d8:	7208      	strb	r0, [r1, #8]
601011da:	6010      	str	r0, [r2, #0]
601011dc:	3560      	add	r5, #96
601011de:	6010      	str	r0, [r2, #0]
601011e0:	73e4      	strb	r4, [r4, #15]
601011e2:	6010      	str	r0, [r2, #0]
601011e4:	2a74      	cmp	r2, #116
601011e6:	6200      	str	r0, [r0, #32]
601011e8:	34e8      	add	r4, #232
601011ea:	6010      	str	r0, [r2, #0]
601011ec:	771c      	strb	r4, [r3, #28]
601011ee:	6010      	str	r0, [r2, #0]
601011f0:	3d70      	sub	r5, #112
601011f2:	6010      	str	r0, [r2, #0]
601011f4:	2215      	mov	r2, #21
601011f6:	6010      	str	r0, [r2, #0]
601011f8:	3da0      	sub	r5, #160
601011fa:	6010      	str	r0, [r2, #0]
601011fc:	7744      	strb	r4, [r0, #29]
601011fe:	6010      	str	r0, [r2, #0]
60101200:	2a6c      	cmp	r2, #108
60101202:	6200      	str	r0, [r0, #32]
60101204:	74ec      	strb	r4, [r5, #19]
60101206:	6010      	str	r0, [r2, #0]
60101208:	35e8      	add	r5, #232
6010120a:	6010      	str	r0, [r2, #0]
6010120c:	7754      	strb	r4, [r2, #29]
6010120e:	6010      	str	r0, [r2, #0]
60101210:	3510      	add	r5, #16
60101212:	6010      	str	r0, [r2, #0]
60101214:	775c      	strb	r4, [r3, #29]
60101216:	6010      	str	r0, [r2, #0]
60101218:	29a4      	cmp	r1, #164
6010121a:	6200      	str	r0, [r0, #32]
6010121c:	041e      	lsl	r6, r3, #16
6010121e:	0000      	lsl	r0, r0, #0
60101220:	1559      	asr	r1, r3, #21
60101222:	6010      	str	r0, [r2, #0]
60101224:	14d1      	asr	r1, r2, #19
60101226:	6010      	str	r0, [r2, #0]
60101228:	7784      	strb	r4, [r0, #30]
6010122a:	6010      	str	r0, [r2, #0]
6010122c:	2584      	mov	r5, #132
6010122e:	6200      	str	r0, [r0, #32]
60101230:	1889      	add	r1, r1, r2
60101232:	6010      	str	r0, [r2, #0]
60101234:	0414      	lsl	r4, r2, #16
60101236:	6200      	str	r0, [r0, #32]
60101238:	38e0      	sub	r0, #224
6010123a:	6010      	str	r0, [r2, #0]
6010123c:	35a8      	add	r5, #168
6010123e:	6010      	str	r0, [r2, #0]
60101240:	77b8      	strb	r0, [r7, #30]
60101242:	6010      	str	r0, [r2, #0]
60101244:	3608      	add	r6, #8
60101246:	6010      	str	r0, [r2, #0]
60101248:	29a2      	cmp	r1, #162
6010124a:	6200      	str	r0, [r0, #32]
6010124c:	3518      	add	r5, #24
6010124e:	6010      	str	r0, [r2, #0]
60101250:	fbe2      	second half of BL instruction 0xfbe2
60101252:	ffff      	second half of BL instruction 0xffff
60101254:	17ed      	asr	r5, r5, #31
60101256:	6010      	str	r0, [r2, #0]
60101258:	77cc      	strb	r4, [r1, #31]
6010125a:	6010      	str	r0, [r2, #0]
6010125c:	1529      	asr	r1, r5, #20
6010125e:	6010      	str	r0, [r2, #0]
60101260:	34f0      	add	r4, #240
60101262:	6010      	str	r0, [r2, #0]

60101264 <ShowVersion>:
60101264:	b510      	push	{r4, lr}
60101266:	4b0d      	ldr	r3, [pc, #52]	(6010129c <PROGRAM+0x10f4>)
60101268:	480d      	ldr	r0, [pc, #52]	(601012a0 <PROGRAM+0x10f8>)
6010126a:	f92cf000 	bl	601014c6 <PROGRAM+0x131e>
6010126e:	4c0d      	ldr	r4, [pc, #52]	(601012a4 <PROGRAM+0x10fc>)
60101270:	4b0d      	ldr	r3, [pc, #52]	(601012a8 <PROGRAM+0x1100>)
60101272:	1c20      	mov	r0, r4		(add r0, r4, #0)
60101274:	f927f000 	bl	601014c6 <PROGRAM+0x131e>
60101278:	2300      	mov	r3, #0
6010127a:	70e3      	strb	r3, [r4, #3]
6010127c:	2346      	mov	r3, #70
6010127e:	1c21      	mov	r1, r4		(add r1, r4, #0)
60101280:	7063      	strb	r3, [r4, #1]
60101282:	4a0a      	ldr	r2, [pc, #40]	(601012ac <PROGRAM+0x1104>)
60101284:	4b0a      	ldr	r3, [pc, #40]	(601012b0 <PROGRAM+0x1108>)
60101286:	4c0b      	ldr	r4, [pc, #44]	(601012b4 <PROGRAM+0x110c>)
60101288:	480b      	ldr	r0, [pc, #44]	(601012b8 <PROGRAM+0x1110>)
6010128a:	f91df000 	bl	601014c8 <PROGRAM+0x1320>
6010128e:	4b0b      	ldr	r3, [pc, #44]	(601012bc <PROGRAM+0x1114>)
60101290:	f919f000 	bl	601014c6 <PROGRAM+0x131e>
60101294:	bc10      	pop	{r4}
60101296:	bc01      	pop	{r0}
60101298:	4700      	bx	r0
6010129a:	0000      	lsl	r0, r0, #0
6010129c:	3da0      	sub	r5, #160
6010129e:	6010      	str	r0, [r2, #0]
601012a0:	77f8      	strb	r0, [r7, #31]
601012a2:	6010      	str	r0, [r2, #0]
601012a4:	29b8      	cmp	r1, #184
601012a6:	6200      	str	r0, [r0, #32]
601012a8:	36f0      	add	r6, #240
601012aa:	6010      	str	r0, [r2, #0]
601012ac:	7838      	ldrb	r0, [r7, #0]
601012ae:	6010      	str	r0, [r2, #0]
601012b0:	7840      	ldrb	r0, [r0, #1]
601012b2:	6010      	str	r0, [r2, #0]
601012b4:	3d70      	sub	r5, #112
601012b6:	6010      	str	r0, [r2, #0]
601012b8:	7820      	ldrb	r0, [r4, #0]
601012ba:	6010      	str	r0, [r2, #0]
601012bc:	2215      	mov	r2, #21
601012be:	6010      	str	r0, [r2, #0]

601012c0 <ShowFonts>:
601012c0:	b570      	push	{r4, r5, r6, lr}
601012c2:	4d1e      	ldr	r5, [pc, #120]	(6010133c <PROGRAM+0x1194>)
601012c4:	2100      	mov	r1, #0
601012c6:	2005      	mov	r0, #5
601012c8:	f8fff000 	bl	601014ca <PROGRAM+0x1322>
601012cc:	4e1c      	ldr	r6, [pc, #112]	(60101340 <PROGRAM+0x1198>)
601012ce:	481d      	ldr	r0, [pc, #116]	(60101344 <PROGRAM+0x119c>)
601012d0:	f8fcf000 	bl	601014cc <PROGRAM+0x1324>
601012d4:	2100      	mov	r1, #0
601012d6:	2004      	mov	r0, #4
601012d8:	f8f7f000 	bl	601014ca <PROGRAM+0x1322>
601012dc:	4c1a      	ldr	r4, [pc, #104]	(60101348 <PROGRAM+0x11a0>)
601012de:	2102      	mov	r1, #2
601012e0:	2000      	mov	r0, #0
601012e2:	f8f1f000 	bl	601014c8 <PROGRAM+0x1320>
601012e6:	4819      	ldr	r0, [pc, #100]	(6010134c <PROGRAM+0x11a4>)
601012e8:	f8f0f000 	bl	601014cc <PROGRAM+0x1324>
601012ec:	2100      	mov	r1, #0
601012ee:	2003      	mov	r0, #3
601012f0:	f8ebf000 	bl	601014ca <PROGRAM+0x1322>
601012f4:	2105      	mov	r1, #5
601012f6:	2000      	mov	r0, #0
601012f8:	f8e6f000 	bl	601014c8 <PROGRAM+0x1320>
601012fc:	4814      	ldr	r0, [pc, #80]	(60101350 <PROGRAM+0x11a8>)
601012fe:	f8e5f000 	bl	601014cc <PROGRAM+0x1324>
60101302:	2100      	mov	r1, #0
60101304:	2002      	mov	r0, #2
60101306:	f8e0f000 	bl	601014ca <PROGRAM+0x1322>
6010130a:	210b      	mov	r1, #11
6010130c:	2000      	mov	r0, #0
6010130e:	f8dbf000 	bl	601014c8 <PROGRAM+0x1320>
60101312:	4810      	ldr	r0, [pc, #64]	(60101354 <PROGRAM+0x11ac>)
60101314:	f8daf000 	bl	601014cc <PROGRAM+0x1324>
60101318:	2100      	mov	r1, #0
6010131a:	2001      	mov	r0, #1
6010131c:	f8d5f000 	bl	601014ca <PROGRAM+0x1322>
60101320:	2112      	mov	r1, #18
60101322:	2000      	mov	r0, #0
60101324:	f8d0f000 	bl	601014c8 <PROGRAM+0x1320>
60101328:	480b      	ldr	r0, [pc, #44]	(60101358 <PROGRAM+0x11b0>)
6010132a:	f8cff000 	bl	601014cc <PROGRAM+0x1324>
6010132e:	4b0b      	ldr	r3, [pc, #44]	(6010135c <PROGRAM+0x11b4>)
60101330:	f8c9f000 	bl	601014c6 <PROGRAM+0x131e>
60101334:	bc70      	pop	{r4, r5, r6}
60101336:	bc01      	pop	{r0}
60101338:	4700      	bx	r0
6010133a:	0000      	lsl	r0, r0, #0
6010133c:	3668      	add	r6, #104
6010133e:	6010      	str	r0, [r2, #0]
60101340:	3d70      	sub	r5, #112
60101342:	6010      	str	r0, [r2, #0]
60101344:	7850      	ldrb	r0, [r2, #1]
60101346:	6010      	str	r0, [r2, #0]
60101348:	35a8      	add	r5, #168
6010134a:	6010      	str	r0, [r2, #0]
6010134c:	7870      	ldrb	r0, [r6, #1]
6010134e:	6010      	str	r0, [r2, #0]
60101350:	7890      	ldrb	r0, [r2, #2]
60101352:	6010      	str	r0, [r2, #0]
60101354:	78b0      	ldrb	r0, [r6, #2]
60101356:	6010      	str	r0, [r2, #0]
60101358:	78d0      	ldrb	r0, [r2, #3]
6010135a:	6010      	str	r0, [r2, #0]
6010135c:	2215      	mov	r2, #21
6010135e:	6010      	str	r0, [r2, #0]

60101360 <file_test>:
60101360:	b5f0      	push	{r4, r5, r6, r7, lr}
60101362:	b0b6      	sub	sp, #216
60101364:	22c8      	mov	r2, #200
60101366:	4922      	ldr	r1, [pc, #136]	(601013f0 <PROGRAM+0x1248>)
60101368:	a804      	add	r0, sp, #16
6010136a:	4b22      	ldr	r3, [pc, #136]	(601013f4 <PROGRAM+0x124c>)
6010136c:	f8abf000 	bl	601014c6 <PROGRAM+0x131e>
60101370:	4921      	ldr	r1, [pc, #132]	(601013f8 <PROGRAM+0x1250>)
60101372:	4b22      	ldr	r3, [pc, #136]	(601013fc <PROGRAM+0x1254>)
60101374:	4822      	ldr	r0, [pc, #136]	(60101400 <PROGRAM+0x1258>)
60101376:	f8a6f000 	bl	601014c6 <PROGRAM+0x131e>
6010137a:	4d22      	ldr	r5, [pc, #136]	(60101404 <PROGRAM+0x125c>)
6010137c:	4b22      	ldr	r3, [pc, #136]	(60101408 <PROGRAM+0x1260>)
6010137e:	4c23      	ldr	r4, [pc, #140]	(6010140c <PROGRAM+0x1264>)
60101380:	1c29      	mov	r1, r5		(add r1, r5, #0)
60101382:	9300      	str	r3, [sp, #0]
60101384:	9401      	str	r4, [sp, #4]
60101386:	4f22      	ldr	r7, [pc, #136]	(60101410 <PROGRAM+0x1268>)
60101388:	9003      	str	r0, [sp, #12]
6010138a:	4a22      	ldr	r2, [pc, #136]	(60101414 <PROGRAM+0x126c>)
6010138c:	a804      	add	r0, sp, #16
6010138e:	2333      	mov	r3, #51
60101390:	f89df000 	bl	601014ce <PROGRAM+0x1326>
60101394:	4b20      	ldr	r3, [pc, #128]	(60101418 <PROGRAM+0x1270>)
60101396:	a804      	add	r0, sp, #16
60101398:	9302      	str	r3, [sp, #8]
6010139a:	f894f000 	bl	601014c6 <PROGRAM+0x131e>
6010139e:	4e1f      	ldr	r6, [pc, #124]	(6010141c <PROGRAM+0x1274>)
601013a0:	1c02      	mov	r2, r0		(add r2, r0, #0)
601013a2:	9b03      	ldr	r3, [sp, #12]
601013a4:	a804      	add	r0, sp, #16
601013a6:	2101      	mov	r1, #1
601013a8:	f890f000 	bl	601014cc <PROGRAM+0x1324>
601013ac:	4b1c      	ldr	r3, [pc, #112]	(60101420 <PROGRAM+0x1278>)
601013ae:	4c1d      	ldr	r4, [pc, #116]	(60101424 <PROGRAM+0x127c>)
601013b0:	1c29      	mov	r1, r5		(add r1, r5, #0)
601013b2:	9300      	str	r3, [sp, #0]
601013b4:	9401      	str	r4, [sp, #4]
601013b6:	4a1c      	ldr	r2, [pc, #112]	(60101428 <PROGRAM+0x1280>)
601013b8:	a804      	add	r0, sp, #16
601013ba:	23e9      	mov	r3, #233
601013bc:	f887f000 	bl	601014ce <PROGRAM+0x1326>
601013c0:	2100      	mov	r1, #0
601013c2:	2202      	mov	r2, #2
601013c4:	9803      	ldr	r0, [sp, #12]
601013c6:	4b19      	ldr	r3, [pc, #100]	(6010142c <PROGRAM+0x1284>)
601013c8:	f87df000 	bl	601014c6 <PROGRAM+0x131e>
601013cc:	9b02      	ldr	r3, [sp, #8]
601013ce:	a804      	add	r0, sp, #16
601013d0:	f879f000 	bl	601014c6 <PROGRAM+0x131e>
601013d4:	2101      	mov	r1, #1
601013d6:	1c02      	mov	r2, r0		(add r2, r0, #0)
601013d8:	9b03      	ldr	r3, [sp, #12]
601013da:	a804      	add	r0, sp, #16
601013dc:	f876f000 	bl	601014cc <PROGRAM+0x1324>
601013e0:	9803      	ldr	r0, [sp, #12]
601013e2:	4b13      	ldr	r3, [pc, #76]	(60101430 <PROGRAM+0x1288>)
601013e4:	f86ff000 	bl	601014c6 <PROGRAM+0x131e>
601013e8:	b036      	add	sp, #216
601013ea:	bcf0      	pop	{r4, r5, r6, r7}
601013ec:	bc01      	pop	{r0}
601013ee:	4700      	bx	r0
601013f0:	6b38      	ldr	r0, [r7, #48]
601013f2:	6010      	str	r0, [r2, #0]
601013f4:	3ce0      	sub	r4, #224
601013f6:	6010      	str	r0, [r2, #0]
601013f8:	78f0      	ldrb	r0, [r6, #3]
601013fa:	6010      	str	r0, [r2, #0]
601013fc:	3a70      	sub	r2, #112
601013fe:	6010      	str	r0, [r2, #0]
60101400:	7208      	strb	r0, [r1, #8]
60101402:	6010      	str	r0, [r2, #0]
60101404:	78f4      	ldrb	r4, [r6, #3]
60101406:	6010      	str	r0, [r2, #0]
60101408:	5570      	strb	r0, [r6, r5]
6010140a:	406d      	eor	r5, r5
6010140c:	0000      	lsl	r0, r0, #0
6010140e:	a000      	add	r0, pc, #0	(adr r0,60101410 <PROGRAM+0x1268>)
60101410:	3ef0      	sub	r6, #240
60101412:	6010      	str	r0, [r2, #0]
60101414:	7904      	ldrb	r4, [r0, #4]
60101416:	6010      	str	r0, [r2, #0]
60101418:	3f68      	sub	r7, #104
6010141a:	6010      	str	r0, [r2, #0]
6010141c:	3ad0      	sub	r2, #208
6010141e:	6010      	str	r0, [r2, #0]
60101420:	d800      	bhi	60101424 <PROGRAM+0x127c>
60101422:	40b1      	lsl	r1, r6
60101424:	0000      	lsl	r0, r0, #0
60101426:	0000      	lsl	r0, r0, #0
60101428:	7910      	ldrb	r0, [r2, #4]
6010142a:	6010      	str	r0, [r2, #0]
6010142c:	3aa8      	sub	r2, #168
6010142e:	6010      	str	r0, [r2, #0]
60101430:	3a08      	sub	r2, #8
60101432:	6010      	str	r0, [r2, #0]

60101434 <main>:
60101434:	b500      	push	{lr}
60101436:	b095      	sub	sp, #84
60101438:	4916      	ldr	r1, [pc, #88]	(60101494 <PROGRAM+0x12ec>)
6010143a:	2254      	mov	r2, #84
6010143c:	4b16      	ldr	r3, [pc, #88]	(60101498 <PROGRAM+0x12f0>)
6010143e:	4668      	mov	r0, sp
60101440:	f841f000 	bl	601014c6 <PROGRAM+0x131e>
60101444:	4b15      	ldr	r3, [pc, #84]	(6010149c <PROGRAM+0x12f4>)
60101446:	2202      	mov	r2, #2
60101448:	601a      	str	r2, [r3, #0]
6010144a:	4b15      	ldr	r3, [pc, #84]	(601014a0 <PROGRAM+0x12f8>)
6010144c:	601a      	str	r2, [r3, #0]
6010144e:	4a15      	ldr	r2, [pc, #84]	(601014a4 <PROGRAM+0x12fc>)
60101450:	4b15      	ldr	r3, [pc, #84]	(601014a8 <PROGRAM+0x1300>)
60101452:	6013      	str	r3, [r2, #0]
60101454:	4b15      	ldr	r3, [pc, #84]	(601014ac <PROGRAM+0x1304>)
60101456:	2201      	mov	r2, #1
60101458:	601a      	str	r2, [r3, #0]
6010145a:	4b15      	ldr	r3, [pc, #84]	(601014b0 <PROGRAM+0x1308>)
6010145c:	4915      	ldr	r1, [pc, #84]	(601014b4 <PROGRAM+0x130c>)
6010145e:	601a      	str	r2, [r3, #0]
60101460:	2308      	mov	r3, #8
60101462:	600b      	str	r3, [r1, #0]
60101464:	4b14      	ldr	r3, [pc, #80]	(601014b8 <PROGRAM+0x1310>)
60101466:	601a      	str	r2, [r3, #0]
60101468:	ff1af7fe 	bl	601002a0 <set_barcodes>
6010146c:	fe9cf7fe 	bl	601001a8 <_eappstart>
60101470:	feb0f7fe 	bl	601001d4 <set_databits>
60101474:	fec4f7fe 	bl	60100200 <set_parity>
60101478:	fedef7fe 	bl	60100238 <set_baudrate>
6010147c:	4b0f      	ldr	r3, [pc, #60]	(601014bc <PROGRAM+0x1314>)
6010147e:	f822f000 	bl	601014c6 <PROGRAM+0x131e>
60101482:	ff6df7ff 	bl	60101360 <file_test>
60101486:	4668      	mov	r0, sp
60101488:	2107      	mov	r1, #7
6010148a:	4b0d      	ldr	r3, [pc, #52]	(601014c0 <PROGRAM+0x1318>)
6010148c:	f81bf000 	bl	601014c6 <PROGRAM+0x131e>
60101490:	e7f9      	b	60101486 <main+0x52>
60101492:	0000      	lsl	r0, r0, #0
60101494:	6c00      	ldr	r0, [r0, #64]
60101496:	6010      	str	r0, [r2, #0]
60101498:	3ce0      	sub	r4, #224
6010149a:	6010      	str	r0, [r2, #0]
6010149c:	2a74      	cmp	r2, #116
6010149e:	6200      	str	r0, [r0, #32]
601014a0:	2a6c      	cmp	r2, #108
601014a2:	6200      	str	r0, [r0, #32]
601014a4:	2a78      	cmp	r2, #120
601014a6:	6200      	str	r0, [r0, #32]
601014a8:	37ff      	add	r7, #255
601014aa:	0018      	lsl	r0, r3, #0
601014ac:	2a84      	cmp	r2, #132
601014ae:	6200      	str	r0, [r0, #32]
601014b0:	2a70      	cmp	r2, #112
601014b2:	6200      	str	r0, [r0, #32]
601014b4:	2a68      	cmp	r2, #104
601014b6:	6200      	str	r0, [r0, #32]
601014b8:	2a7c      	cmp	r2, #124
601014ba:	6200      	str	r0, [r0, #32]
601014bc:	2e35      	cmp	r6, #53
601014be:	6010      	str	r0, [r2, #0]
601014c0:	30dd      	add	r0, #221
601014c2:	6010      	str	r0, [r2, #0]
601014c4:	4710      	bx	r2
601014c6:	4718      	bx	r3
601014c8:	4720      	bx	r4
601014ca:	4728      	bx	r5
601014cc:	4730      	bx	r6
601014ce:	4738      	bx	r7

601014d0 <GetDBErrorCode>:
601014d0:	4b01      	ldr	r3, [pc, #4]	(601014d8 <PROGRAM+0x1330>)
601014d2:	6818      	ldr	r0, [r3, #0]
601014d4:	4770      	bx	lr
601014d6:	0000      	lsl	r0, r0, #0
601014d8:	29c8      	cmp	r1, #200
601014da:	6200      	str	r0, [r0, #32]

601014dc <CreateDatabase>:
601014dc:	b570      	push	{r4, r5, r6, lr}
601014de:	4d0f      	ldr	r5, [pc, #60]	(6010151c <PROGRAM+0x1374>)
601014e0:	2300      	mov	r3, #0
601014e2:	602b      	str	r3, [r5, #0]
601014e4:	6913      	ldr	r3, [r2, #16]
601014e6:	0409      	lsl	r1, r1, #16
601014e8:	1c14      	mov	r4, r2		(add r4, r2, #0)
601014ea:	0c0e      	lsr	r6, r1, #16
601014ec:	2b01      	cmp	r3, #1
601014ee:	d008      	beq	60101502 <CreateDatabase+0x26>
601014f0:	490b      	ldr	r1, [pc, #44]	(60101520 <PROGRAM+0x1378>)
601014f2:	2200      	mov	r2, #0
601014f4:	4b0b      	ldr	r3, [pc, #44]	(60101524 <PROGRAM+0x137c>)
601014f6:	fe89f000 	bl	6010220c <PROGRAM+0x2064>
601014fa:	6060      	str	r0, [r4, #4]
601014fc:	3001      	add	r0, #1
601014fe:	d103      	bne	60101508 <CreateDatabase+0x2c>
60101500:	2302      	mov	r3, #2
60101502:	2000      	mov	r0, #0
60101504:	602b      	str	r3, [r5, #0]
60101506:	e006      	b	60101516 <CreateDatabase+0x3a>
60101508:	2301      	mov	r3, #1
6010150a:	6123      	str	r3, [r4, #16]
6010150c:	2300      	mov	r3, #0
6010150e:	8026      	strh	r6, [r4, #0]
60101510:	60a3      	str	r3, [r4, #8]
60101512:	60e3      	str	r3, [r4, #12]
60101514:	2001      	mov	r0, #1
60101516:	bc70      	pop	{r4, r5, r6}
60101518:	bc02      	pop	{r1}
6010151a:	4708      	bx	r1
6010151c:	29c8      	cmp	r1, #200
6010151e:	6200      	str	r0, [r0, #32]
60101520:	0602      	lsl	r2, r0, #24
60101522:	0000      	lsl	r0, r0, #0
60101524:	4078      	eor	r0, r7
60101526:	6010      	str	r0, [r2, #0]

60101528 <CloseDatabase>:
60101528:	b530      	push	{r4, r5, lr}
6010152a:	4b09      	ldr	r3, [pc, #36]	(60101550 <PROGRAM+0x13a8>)
6010152c:	2500      	mov	r5, #0
6010152e:	601d      	str	r5, [r3, #0]
60101530:	6903      	ldr	r3, [r0, #16]
60101532:	1c04      	mov	r4, r0		(add r4, r0, #0)
60101534:	2b01      	cmp	r3, #1
60101536:	d107      	bne	60101548 <CloseDatabase+0x20>
60101538:	4b06      	ldr	r3, [pc, #24]	(60101554 <PROGRAM+0x13ac>)
6010153a:	6840      	ldr	r0, [r0, #4]
6010153c:	fe66f000 	bl	6010220c <PROGRAM+0x2064>
60101540:	2301      	mov	r3, #1
60101542:	425b      	neg	r3, r3
60101544:	6125      	str	r5, [r4, #16]
60101546:	6063      	str	r3, [r4, #4]
60101548:	bc30      	pop	{r4, r5}
6010154a:	bc01      	pop	{r0}
6010154c:	4700      	bx	r0
6010154e:	0000      	lsl	r0, r0, #0
60101550:	29c8      	cmp	r1, #200
60101552:	6200      	str	r0, [r0, #32]
60101554:	4030      	and	r0, r6
60101556:	6010      	str	r0, [r2, #0]

60101558 <OpenDatabase>:
60101558:	b5f0      	push	{r4, r5, r6, r7, lr}
6010155a:	4c25      	ldr	r4, [pc, #148]	(601015f0 <PROGRAM+0x1448>)
6010155c:	2300      	mov	r3, #0
6010155e:	0409      	lsl	r1, r1, #16
60101560:	6023      	str	r3, [r4, #0]
60101562:	6913      	ldr	r3, [r2, #16]
60101564:	b081      	sub	sp, #4
60101566:	0c09      	lsr	r1, r1, #16
60101568:	1c07      	mov	r7, r0		(add r7, r0, #0)
6010156a:	1c15      	mov	r5, r2		(add r5, r2, #0)
6010156c:	9100      	str	r1, [sp, #0]
6010156e:	2b01      	cmp	r3, #1
60101570:	d006      	beq	60101580 <OpenDatabase+0x28>
60101572:	4b20      	ldr	r3, [pc, #128]	(601015f4 <PROGRAM+0x144c>)
60101574:	fe4af000 	bl	6010220c <PROGRAM+0x2064>
60101578:	1c06      	mov	r6, r0		(add r6, r0, #0)
6010157a:	1c42      	add	r2, r0, #1
6010157c:	d103      	bne	60101586 <OpenDatabase+0x2e>
6010157e:	2304      	mov	r3, #4
60101580:	6023      	str	r3, [r4, #0]
60101582:	2000      	mov	r0, #0
60101584:	e030      	b	601015e8 <OpenDatabase+0x90>
60101586:	1c38      	mov	r0, r7		(add r0, r7, #0)
60101588:	2102      	mov	r1, #2
6010158a:	4a1b      	ldr	r2, [pc, #108]	(601015f8 <PROGRAM+0x1450>)
6010158c:	4b1b      	ldr	r3, [pc, #108]	(601015fc <PROGRAM+0x1454>)
6010158e:	fe3df000 	bl	6010220c <PROGRAM+0x2064>
60101592:	6068      	str	r0, [r5, #4]
60101594:	3001      	add	r0, #1
60101596:	d103      	bne	601015a0 <OpenDatabase+0x48>
60101598:	4a15      	ldr	r2, [pc, #84]	(601015f0 <PROGRAM+0x1448>)
6010159a:	2302      	mov	r3, #2
6010159c:	6013      	str	r3, [r2, #0]
6010159e:	e7f0      	b	60101582 <OpenDatabase+0x2a>
601015a0:	9a00      	ldr	r2, [sp, #0]
601015a2:	2301      	mov	r3, #1
601015a4:	612b      	str	r3, [r5, #16]
601015a6:	0413      	lsl	r3, r2, #16
601015a8:	141c      	asr	r4, r3, #16
601015aa:	1c30      	mov	r0, r6		(add r0, r6, #0)
601015ac:	4b14      	ldr	r3, [pc, #80]	(60101600 <PROGRAM+0x1458>)
601015ae:	1c21      	mov	r1, r4		(add r1, r4, #0)
601015b0:	fe2cf000 	bl	6010220c <PROGRAM+0x2064>
601015b4:	2800      	cmp	r0, #0
601015b6:	d006      	beq	601015c6 <OpenDatabase+0x6e>
601015b8:	4a0d      	ldr	r2, [pc, #52]	(601015f0 <PROGRAM+0x1448>)
601015ba:	2310      	mov	r3, #16
601015bc:	6013      	str	r3, [r2, #0]
601015be:	1c28      	mov	r0, r5		(add r0, r5, #0)
601015c0:	ffb2f7ff 	bl	60101528 <CloseDatabase>
601015c4:	e7dd      	b	60101582 <OpenDatabase+0x2a>
601015c6:	466b      	mov	r3, sp
601015c8:	881b      	ldrh	r3, [r3, #0]
601015ca:	802b      	strh	r3, [r5, #0]
601015cc:	2e00      	cmp	r6, #0
601015ce:	d001      	beq	601015d4 <OpenDatabase+0x7c>
601015d0:	2300      	mov	r3, #0
601015d2:	e001      	b	601015d8 <OpenDatabase+0x80>
601015d4:	2301      	mov	r3, #1
601015d6:	425b      	neg	r3, r3
601015d8:	60ab      	str	r3, [r5, #8]
601015da:	1c30      	mov	r0, r6		(add r0, r6, #0)
601015dc:	4b09      	ldr	r3, [pc, #36]	(60101604 <PROGRAM+0x145c>)
601015de:	1c21      	mov	r1, r4		(add r1, r4, #0)
601015e0:	fe14f000 	bl	6010220c <PROGRAM+0x2064>
601015e4:	60e8      	str	r0, [r5, #12]
601015e6:	2001      	mov	r0, #1
601015e8:	b001      	add	sp, #4
601015ea:	bcf0      	pop	{r4, r5, r6, r7}
601015ec:	bc02      	pop	{r1}
601015ee:	4708      	bx	r1
601015f0:	29c8      	cmp	r1, #200
601015f2:	6200      	str	r0, [r0, #32]
601015f4:	3560      	add	r5, #96
601015f6:	6010      	str	r0, [r2, #0]
601015f8:	0777      	lsl	r7, r6, #29
601015fa:	0000      	lsl	r0, r0, #0
601015fc:	4078      	eor	r0, r7
601015fe:	6010      	str	r0, [r2, #0]
60101600:	4401      	add	r1, r0
60101602:	6010      	str	r0, [r2, #0]
60101604:	435d      	mul	r5, r3
60101606:	6010      	str	r0, [r2, #0]

60101608 <OpenIndexFile>:
60101608:	b500      	push	{lr}
6010160a:	2380      	mov	r3, #128
6010160c:	02db      	lsl	r3, r3, #11
6010160e:	0409      	lsl	r1, r1, #16
60101610:	18c9      	add	r1, r1, r3
60101612:	1409      	asr	r1, r1, #16
60101614:	ffa0f7ff 	bl	60101558 <OpenDatabase>
60101618:	bc02      	pop	{r1}
6010161a:	4708      	bx	r1

6010161c <GetCurrentRecord>:
6010161c:	4a08      	ldr	r2, [pc, #32]	(60101640 <PROGRAM+0x1498>)
6010161e:	2300      	mov	r3, #0
60101620:	6013      	str	r3, [r2, #0]
60101622:	6903      	ldr	r3, [r0, #16]
60101624:	2b01      	cmp	r3, #1
60101626:	d001      	beq	6010162c <GetCurrentRecord+0x10>
60101628:	2305      	mov	r3, #5
6010162a:	e003      	b	60101634 <GetCurrentRecord+0x18>
6010162c:	68c3      	ldr	r3, [r0, #12]
6010162e:	2b00      	cmp	r3, #0
60101630:	d104      	bne	6010163c <GetCurrentRecord+0x20>
60101632:	2306      	mov	r3, #6
60101634:	2001      	mov	r0, #1
60101636:	4240      	neg	r0, r0
60101638:	6013      	str	r3, [r2, #0]
6010163a:	e000      	b	6010163e <GetCurrentRecord+0x22>
6010163c:	6880      	ldr	r0, [r0, #8]
6010163e:	4770      	bx	lr
60101640:	29c8      	cmp	r1, #200
60101642:	6200      	str	r0, [r0, #32]

60101644 <ReadCurrentRecord>:
60101644:	b530      	push	{r4, r5, lr}
60101646:	1c04      	mov	r4, r0		(add r4, r0, #0)
60101648:	1c0d      	mov	r5, r1		(add r5, r1, #0)
6010164a:	ffe7f7ff 	bl	6010161c <GetCurrentRecord>
6010164e:	1c02      	mov	r2, r0		(add r2, r0, #0)
60101650:	1c43      	add	r3, r0, #1
60101652:	d023      	beq	6010169c <ReadCurrentRecord+0x58>
60101654:	8823      	ldrh	r3, [r4, #0]
60101656:	041b      	lsl	r3, r3, #16
60101658:	141b      	asr	r3, r3, #16
6010165a:	1c19      	mov	r1, r3		(add r1, r3, #0)
6010165c:	4351      	mul	r1, r2
6010165e:	6860      	ldr	r0, [r4, #4]
60101660:	2200      	mov	r2, #0
60101662:	4b10      	ldr	r3, [pc, #64]	(601016a4 <PROGRAM+0x14fc>)
60101664:	fdd2f000 	bl	6010220c <PROGRAM+0x2064>
60101668:	3001      	add	r0, #1
6010166a:	d103      	bne	60101674 <ReadCurrentRecord+0x30>
6010166c:	4a0e      	ldr	r2, [pc, #56]	(601016a8 <PROGRAM+0x1500>)
6010166e:	2312      	mov	r3, #18
60101670:	6013      	str	r3, [r2, #0]
60101672:	e013      	b	6010169c <ReadCurrentRecord+0x58>
60101674:	8822      	ldrh	r2, [r4, #0]
60101676:	0412      	lsl	r2, r2, #16
60101678:	4b0c      	ldr	r3, [pc, #48]	(601016ac <PROGRAM+0x1504>)
6010167a:	6860      	ldr	r0, [r4, #4]
6010167c:	1412      	asr	r2, r2, #16
6010167e:	1c29      	mov	r1, r5		(add r1, r5, #0)
60101680:	fdc4f000 	bl	6010220c <PROGRAM+0x2064>
60101684:	8823      	ldrh	r3, [r4, #0]
60101686:	041b      	lsl	r3, r3, #16
60101688:	141b      	asr	r3, r3, #16
6010168a:	4298      	cmp	r0, r3
6010168c:	d101      	bne	60101692 <ReadCurrentRecord+0x4e>
6010168e:	2001      	mov	r0, #1
60101690:	e005      	b	6010169e <ReadCurrentRecord+0x5a>
60101692:	4b05      	ldr	r3, [pc, #20]	(601016a8 <PROGRAM+0x1500>)
60101694:	2220      	mov	r2, #32
60101696:	601a      	str	r2, [r3, #0]
60101698:	2300      	mov	r3, #0
6010169a:	702b      	strb	r3, [r5, #0]
6010169c:	2000      	mov	r0, #0
6010169e:	bc30      	pop	{r4, r5}
601016a0:	bc02      	pop	{r1}
601016a2:	4708      	bx	r1
601016a4:	3778      	add	r7, #120
601016a6:	6010      	str	r0, [r2, #0]
601016a8:	29c8      	cmp	r1, #200
601016aa:	6200      	str	r0, [r0, #32]
601016ac:	4080      	lsl	r0, r0
601016ae:	6010      	str	r0, [r2, #0]

601016b0 <GetTotalRecords>:
601016b0:	4a06      	ldr	r2, [pc, #24]	(601016cc <PROGRAM+0x1524>)
601016b2:	2300      	mov	r3, #0
601016b4:	6013      	str	r3, [r2, #0]
601016b6:	6903      	ldr	r3, [r0, #16]
601016b8:	2b01      	cmp	r3, #1
601016ba:	d004      	beq	601016c6 <GetTotalRecords+0x16>
601016bc:	2001      	mov	r0, #1
601016be:	2305      	mov	r3, #5
601016c0:	4240      	neg	r0, r0
601016c2:	6013      	str	r3, [r2, #0]
601016c4:	e000      	b	601016c8 <GetTotalRecords+0x18>
601016c6:	68c0      	ldr	r0, [r0, #12]
601016c8:	4770      	bx	lr
601016ca:	0000      	lsl	r0, r0, #0
601016cc:	29c8      	cmp	r1, #200
601016ce:	6200      	str	r0, [r0, #32]

601016d0 <GotoRecord>:
601016d0:	b530      	push	{r4, r5, lr}
601016d2:	1c05      	mov	r5, r0		(add r5, r0, #0)
601016d4:	1c0c      	mov	r4, r1		(add r4, r1, #0)
601016d6:	ffebf7ff 	bl	601016b0 <GetTotalRecords>
601016da:	1c43      	add	r3, r0, #1
601016dc:	d006      	beq	601016ec <GotoRecord+0x1c>
601016de:	2c00      	cmp	r4, #0
601016e0:	db01      	blt	601016e6 <GotoRecord+0x16>
601016e2:	4284      	cmp	r4, r0
601016e4:	db04      	blt	601016f0 <GotoRecord+0x20>
601016e6:	4a05      	ldr	r2, [pc, #20]	(601016fc <PROGRAM+0x1554>)
601016e8:	2311      	mov	r3, #17
601016ea:	6013      	str	r3, [r2, #0]
601016ec:	2000      	mov	r0, #0
601016ee:	e001      	b	601016f4 <GotoRecord+0x24>
601016f0:	60ac      	str	r4, [r5, #8]
601016f2:	2001      	mov	r0, #1
601016f4:	bc30      	pop	{r4, r5}
601016f6:	bc02      	pop	{r1}
601016f8:	4708      	bx	r1
601016fa:	0000      	lsl	r0, r0, #0
601016fc:	29c8      	cmp	r1, #200
601016fe:	6200      	str	r0, [r0, #32]

60101700 <LineairSearch>:
60101700:	b5f0      	push	{r4, r5, r6, r7, lr}
60101702:	b082      	sub	sp, #8
60101704:	1c05      	mov	r5, r0		(add r5, r0, #0)
60101706:	1c0e      	mov	r6, r1		(add r6, r1, #0)
60101708:	9201      	str	r2, [sp, #4]
6010170a:	9300      	str	r3, [sp, #0]
6010170c:	ffd0f7ff 	bl	601016b0 <GetTotalRecords>
60101710:	1c07      	mov	r7, r0		(add r7, r0, #0)
60101712:	1c43      	add	r3, r0, #1
60101714:	d01f      	beq	60101756 <LineairSearch+0x56>
60101716:	2400      	mov	r4, #0
60101718:	e015      	b	60101746 <LineairSearch+0x46>
6010171a:	1c28      	mov	r0, r5		(add r0, r5, #0)
6010171c:	1c21      	mov	r1, r4		(add r1, r4, #0)
6010171e:	ffd7f7ff 	bl	601016d0 <GotoRecord>
60101722:	2800      	cmp	r0, #0
60101724:	d017      	beq	60101756 <LineairSearch+0x56>
60101726:	1c28      	mov	r0, r5		(add r0, r5, #0)
60101728:	1c31      	mov	r1, r6		(add r1, r6, #0)
6010172a:	ff8bf7ff 	bl	60101644 <ReadCurrentRecord>
6010172e:	2800      	cmp	r0, #0
60101730:	d011      	beq	60101756 <LineairSearch+0x56>
60101732:	9b07      	ldr	r3, [sp, #28]
60101734:	9801      	ldr	r0, [sp, #4]
60101736:	18f1      	add	r1, r6, r3
60101738:	9a00      	ldr	r2, [sp, #0]
6010173a:	4b0a      	ldr	r3, [pc, #40]	(60101764 <PROGRAM+0x15bc>)
6010173c:	fd66f000 	bl	6010220c <PROGRAM+0x2064>
60101740:	2800      	cmp	r0, #0
60101742:	d00a      	beq	6010175a <LineairSearch+0x5a>
60101744:	3401      	add	r4, #1
60101746:	42bc      	cmp	r4, r7
60101748:	dbe7      	blt	6010171a <LineairSearch+0x1a>
6010174a:	4b07      	ldr	r3, [pc, #28]	(60101768 <PROGRAM+0x15c0>)
6010174c:	2280      	mov	r2, #128
6010174e:	0152      	lsl	r2, r2, #5
60101750:	601a      	str	r2, [r3, #0]
60101752:	2300      	mov	r3, #0
60101754:	7033      	strb	r3, [r6, #0]
60101756:	2401      	mov	r4, #1
60101758:	4264      	neg	r4, r4
6010175a:	1c20      	mov	r0, r4		(add r0, r4, #0)
6010175c:	b002      	add	sp, #8
6010175e:	bcf0      	pop	{r4, r5, r6, r7}
60101760:	bc02      	pop	{r1}
60101762:	4708      	bx	r1
60101764:	3cd8      	sub	r4, #216
60101766:	6010      	str	r0, [r2, #0]
60101768:	29c8      	cmp	r1, #200
6010176a:	6200      	str	r0, [r0, #32]

6010176c <BinarySearch>:
6010176c:	b5f0      	push	{r4, r5, r6, r7, lr}
6010176e:	b083      	sub	sp, #12
60101770:	1c06      	mov	r6, r0		(add r6, r0, #0)
60101772:	1c0f      	mov	r7, r1		(add r7, r1, #0)
60101774:	9201      	str	r2, [sp, #4]
60101776:	9300      	str	r3, [sp, #0]
60101778:	ff9af7ff 	bl	601016b0 <GetTotalRecords>
6010177c:	1c05      	mov	r5, r0		(add r5, r0, #0)
6010177e:	1c42      	add	r2, r0, #1
60101780:	d029      	beq	601017d6 <BinarySearch+0x6a>
60101782:	2300      	mov	r3, #0
60101784:	9302      	str	r3, [sp, #8]
60101786:	9a02      	ldr	r2, [sp, #8]
60101788:	1aab      	sub	r3, r5, r2
6010178a:	105b      	asr	r3, r3, #1
6010178c:	189c      	add	r4, r3, r2
6010178e:	1c30      	mov	r0, r6		(add r0, r6, #0)
60101790:	1c21      	mov	r1, r4		(add r1, r4, #0)
60101792:	ff9df7ff 	bl	601016d0 <GotoRecord>
60101796:	2800      	cmp	r0, #0
60101798:	d01d      	beq	601017d6 <BinarySearch+0x6a>
6010179a:	1c30      	mov	r0, r6		(add r0, r6, #0)
6010179c:	1c39      	mov	r1, r7		(add r1, r7, #0)
6010179e:	ff51f7ff 	bl	60101644 <ReadCurrentRecord>
601017a2:	2800      	cmp	r0, #0
601017a4:	d017      	beq	601017d6 <BinarySearch+0x6a>
601017a6:	9b08      	ldr	r3, [sp, #32]
601017a8:	9801      	ldr	r0, [sp, #4]
601017aa:	18f9      	add	r1, r7, r3
601017ac:	9a00      	ldr	r2, [sp, #0]
601017ae:	4b0d      	ldr	r3, [pc, #52]	(601017e4 <PROGRAM+0x163c>)
601017b0:	fd2cf000 	bl	6010220c <PROGRAM+0x2064>
601017b4:	2800      	cmp	r0, #0
601017b6:	d010      	beq	601017da <BinarySearch+0x6e>
601017b8:	2800      	cmp	r0, #0
601017ba:	da01      	bge	601017c0 <BinarySearch+0x54>
601017bc:	1e65      	sub	r5, r4, #1
601017be:	e001      	b	601017c4 <BinarySearch+0x58>
601017c0:	3401      	add	r4, #1
601017c2:	9402      	str	r4, [sp, #8]
601017c4:	9a02      	ldr	r2, [sp, #8]
601017c6:	42aa      	cmp	r2, r5
601017c8:	dddd      	ble	60101786 <BinarySearch+0x1a>
601017ca:	4b07      	ldr	r3, [pc, #28]	(601017e8 <PROGRAM+0x1640>)
601017cc:	2280      	mov	r2, #128
601017ce:	0152      	lsl	r2, r2, #5
601017d0:	601a      	str	r2, [r3, #0]
601017d2:	2300      	mov	r3, #0
601017d4:	703b      	strb	r3, [r7, #0]
601017d6:	2401      	mov	r4, #1
601017d8:	4264      	neg	r4, r4
601017da:	1c20      	mov	r0, r4		(add r0, r4, #0)
601017dc:	b003      	add	sp, #12
601017de:	bcf0      	pop	{r4, r5, r6, r7}
601017e0:	bc02      	pop	{r1}
601017e2:	4708      	bx	r1
601017e4:	3cd8      	sub	r4, #216
601017e6:	6010      	str	r0, [r2, #0]
601017e8:	29c8      	cmp	r1, #200
601017ea:	6200      	str	r0, [r0, #32]

601017ec <ReadNextRecord>:
601017ec:	b530      	push	{r4, r5, lr}
601017ee:	1c04      	mov	r4, r0		(add r4, r0, #0)
601017f0:	1c0d      	mov	r5, r1		(add r5, r1, #0)
601017f2:	ff13f7ff 	bl	6010161c <GetCurrentRecord>
601017f6:	1c43      	add	r3, r0, #1
601017f8:	d00d      	beq	60101816 <ReadNextRecord+0x2a>
601017fa:	1c41      	add	r1, r0, #1
601017fc:	1c20      	mov	r0, r4		(add r0, r4, #0)
601017fe:	ff67f7ff 	bl	601016d0 <GotoRecord>
60101802:	2800      	cmp	r0, #0
60101804:	d007      	beq	60101816 <ReadNextRecord+0x2a>
60101806:	1c20      	mov	r0, r4		(add r0, r4, #0)
60101808:	1c29      	mov	r1, r5		(add r1, r5, #0)
6010180a:	ff1bf7ff 	bl	60101644 <ReadCurrentRecord>
6010180e:	2800      	cmp	r0, #0
60101810:	d001      	beq	60101816 <ReadNextRecord+0x2a>
60101812:	2001      	mov	r0, #1
60101814:	e000      	b	60101818 <ReadNextRecord+0x2c>
60101816:	2000      	mov	r0, #0
60101818:	bc30      	pop	{r4, r5}
6010181a:	bc02      	pop	{r1}
6010181c:	4708      	bx	r1
	...

60101820 <ReadPreviousRecord>:
60101820:	b530      	push	{r4, r5, lr}
60101822:	1c04      	mov	r4, r0		(add r4, r0, #0)
60101824:	1c0d      	mov	r5, r1		(add r5, r1, #0)
60101826:	fef9f7ff 	bl	6010161c <GetCurrentRecord>
6010182a:	1c43      	add	r3, r0, #1
6010182c:	d00d      	beq	6010184a <ReadPreviousRecord+0x2a>
6010182e:	1e41      	sub	r1, r0, #1
60101830:	1c20      	mov	r0, r4		(add r0, r4, #0)
60101832:	ff4df7ff 	bl	601016d0 <GotoRecord>
60101836:	2800      	cmp	r0, #0
60101838:	d007      	beq	6010184a <ReadPreviousRecord+0x2a>
6010183a:	1c20      	mov	r0, r4		(add r0, r4, #0)
6010183c:	1c29      	mov	r1, r5		(add r1, r5, #0)
6010183e:	ff01f7ff 	bl	60101644 <ReadCurrentRecord>
60101842:	2800      	cmp	r0, #0
60101844:	d001      	beq	6010184a <ReadPreviousRecord+0x2a>
60101846:	2001      	mov	r0, #1
60101848:	e000      	b	6010184c <ReadPreviousRecord+0x2c>
6010184a:	2000      	mov	r0, #0
6010184c:	bc30      	pop	{r4, r5}
6010184e:	bc02      	pop	{r1}
60101850:	4708      	bx	r1
	...

60101854 <ReadLastRecord>:
60101854:	b530      	push	{r4, r5, lr}
60101856:	1c04      	mov	r4, r0		(add r4, r0, #0)
60101858:	1c0d      	mov	r5, r1		(add r5, r1, #0)
6010185a:	ff29f7ff 	bl	601016b0 <GetTotalRecords>
6010185e:	1c43      	add	r3, r0, #1
60101860:	d00d      	beq	6010187e <ReadLastRecord+0x2a>
60101862:	1e41      	sub	r1, r0, #1
60101864:	1c20      	mov	r0, r4		(add r0, r4, #0)
60101866:	ff33f7ff 	bl	601016d0 <GotoRecord>
6010186a:	2800      	cmp	r0, #0
6010186c:	d007      	beq	6010187e <ReadLastRecord+0x2a>
6010186e:	1c20      	mov	r0, r4		(add r0, r4, #0)
60101870:	1c29      	mov	r1, r5		(add r1, r5, #0)
60101872:	fee7f7ff 	bl	60101644 <ReadCurrentRecord>
60101876:	2800      	cmp	r0, #0
60101878:	d001      	beq	6010187e <ReadLastRecord+0x2a>
6010187a:	2001      	mov	r0, #1
6010187c:	e000      	b	60101880 <ReadLastRecord+0x2c>
6010187e:	2000      	mov	r0, #0
60101880:	bc30      	pop	{r4, r5}
60101882:	bc02      	pop	{r1}
60101884:	4708      	bx	r1
	...

60101888 <ReadFirstRecord>:
60101888:	b530      	push	{r4, r5, lr}
6010188a:	1c0d      	mov	r5, r1		(add r5, r1, #0)
6010188c:	2100      	mov	r1, #0
6010188e:	1c04      	mov	r4, r0		(add r4, r0, #0)
60101890:	ff1ef7ff 	bl	601016d0 <GotoRecord>
60101894:	2800      	cmp	r0, #0
60101896:	d007      	beq	601018a8 <ReadFirstRecord+0x20>
60101898:	1c20      	mov	r0, r4		(add r0, r4, #0)
6010189a:	1c29      	mov	r1, r5		(add r1, r5, #0)
6010189c:	fed2f7ff 	bl	60101644 <ReadCurrentRecord>
601018a0:	2800      	cmp	r0, #0
601018a2:	d001      	beq	601018a8 <ReadFirstRecord+0x20>
601018a4:	2001      	mov	r0, #1
601018a6:	e000      	b	601018aa <ReadFirstRecord+0x22>
601018a8:	2000      	mov	r0, #0
601018aa:	bc30      	pop	{r4, r5}
601018ac:	bc02      	pop	{r1}
601018ae:	4708      	bx	r1

601018b0 <WriteRecord>:
601018b0:	b5f0      	push	{r4, r5, r6, r7, lr}
601018b2:	4d29      	ldr	r5, [pc, #164]	(60101958 <PROGRAM+0x17b0>)
601018b4:	2300      	mov	r3, #0
601018b6:	602b      	str	r3, [r5, #0]
601018b8:	6903      	ldr	r3, [r0, #16]
601018ba:	1c04      	mov	r4, r0		(add r4, r0, #0)
601018bc:	1c0f      	mov	r7, r1		(add r7, r1, #0)
601018be:	1c16      	mov	r6, r2		(add r6, r2, #0)
601018c0:	2b01      	cmp	r3, #1
601018c2:	d001      	beq	601018c8 <WriteRecord+0x18>
601018c4:	2305      	mov	r3, #5
601018c6:	e021      	b	6010190c <WriteRecord+0x5c>
601018c8:	2a01      	cmp	r2, #1
601018ca:	d112      	bne	601018f2 <WriteRecord+0x42>
601018cc:	fea6f7ff 	bl	6010161c <GetCurrentRecord>
601018d0:	1c01      	mov	r1, r0		(add r1, r0, #0)
601018d2:	1c43      	add	r3, r0, #1
601018d4:	d02c      	beq	60101930 <WriteRecord+0x80>
601018d6:	8823      	ldrh	r3, [r4, #0]
601018d8:	041b      	lsl	r3, r3, #16
601018da:	141b      	asr	r3, r3, #16
601018dc:	4359      	mul	r1, r3
601018de:	6860      	ldr	r0, [r4, #4]
601018e0:	2200      	mov	r2, #0
601018e2:	4b1e      	ldr	r3, [pc, #120]	(6010195c <PROGRAM+0x17b4>)
601018e4:	fc92f000 	bl	6010220c <PROGRAM+0x2064>
601018e8:	3001      	add	r0, #1
601018ea:	d111      	bne	60101910 <WriteRecord+0x60>
601018ec:	4a1a      	ldr	r2, [pc, #104]	(60101958 <PROGRAM+0x17b0>)
601018ee:	2312      	mov	r3, #18
601018f0:	e01d      	b	6010192e <WriteRecord+0x7e>
601018f2:	2a02      	cmp	r2, #2
601018f4:	d109      	bne	6010190a <WriteRecord+0x5a>
601018f6:	6840      	ldr	r0, [r0, #4]
601018f8:	2100      	mov	r1, #0
601018fa:	2202      	mov	r2, #2
601018fc:	4b17      	ldr	r3, [pc, #92]	(6010195c <PROGRAM+0x17b4>)
601018fe:	fc85f000 	bl	6010220c <PROGRAM+0x2064>
60101902:	3001      	add	r0, #1
60101904:	d104      	bne	60101910 <WriteRecord+0x60>
60101906:	2312      	mov	r3, #18
60101908:	e000      	b	6010190c <WriteRecord+0x5c>
6010190a:	2331      	mov	r3, #49
6010190c:	602b      	str	r3, [r5, #0]
6010190e:	e00f      	b	60101930 <WriteRecord+0x80>
60101910:	8822      	ldrh	r2, [r4, #0]
60101912:	0412      	lsl	r2, r2, #16
60101914:	4b12      	ldr	r3, [pc, #72]	(60101960 <PROGRAM+0x17b8>)
60101916:	6860      	ldr	r0, [r4, #4]
60101918:	1412      	asr	r2, r2, #16
6010191a:	1c39      	mov	r1, r7		(add r1, r7, #0)
6010191c:	fc76f000 	bl	6010220c <PROGRAM+0x2064>
60101920:	8823      	ldrh	r3, [r4, #0]
60101922:	041b      	lsl	r3, r3, #16
60101924:	141b      	asr	r3, r3, #16
60101926:	4298      	cmp	r0, r3
60101928:	d004      	beq	60101934 <WriteRecord+0x84>
6010192a:	4a0b      	ldr	r2, [pc, #44]	(60101958 <PROGRAM+0x17b0>)
6010192c:	2330      	mov	r3, #48
6010192e:	6013      	str	r3, [r2, #0]
60101930:	2000      	mov	r0, #0
60101932:	e00d      	b	60101950 <WriteRecord+0xa0>
60101934:	2e02      	cmp	r6, #2
60101936:	d10a      	bne	6010194e <WriteRecord+0x9e>
60101938:	68e3      	ldr	r3, [r4, #12]
6010193a:	3301      	add	r3, #1
6010193c:	60e3      	str	r3, [r4, #12]
6010193e:	1c20      	mov	r0, r4		(add r0, r4, #0)
60101940:	feb6f7ff 	bl	601016b0 <GetTotalRecords>
60101944:	1c01      	mov	r1, r0		(add r1, r0, #0)
60101946:	3901      	sub	r1, #1
60101948:	1c20      	mov	r0, r4		(add r0, r4, #0)
6010194a:	fec1f7ff 	bl	601016d0 <GotoRecord>
6010194e:	2001      	mov	r0, #1
60101950:	bcf0      	pop	{r4, r5, r6, r7}
60101952:	bc02      	pop	{r1}
60101954:	4708      	bx	r1
60101956:	0000      	lsl	r0, r0, #0
60101958:	29c8      	cmp	r1, #200
6010195a:	6200      	str	r0, [r0, #32]
6010195c:	3778      	add	r7, #120
6010195e:	6010      	str	r0, [r2, #0]
60101960:	40b8      	lsl	r0, r7
60101962:	6010      	str	r0, [r2, #0]

60101964 <downheap>:
60101964:	b5f0      	push	{r4, r5, r6, r7, lr}
60101966:	b084      	sub	sp, #16
60101968:	1c16      	mov	r6, r2		(add r6, r2, #0)
6010196a:	9a09      	ldr	r2, [sp, #36]
6010196c:	041b      	lsl	r3, r3, #16
6010196e:	0412      	lsl	r2, r2, #16
60101970:	9102      	str	r1, [sp, #8]
60101972:	0c1b      	lsr	r3, r3, #16
60101974:	0c12      	lsr	r2, r2, #16
60101976:	1e71      	sub	r1, r6, #1
60101978:	1c04      	mov	r4, r0		(add r4, r0, #0)
6010197a:	9f0b      	ldr	r7, [sp, #44]
6010197c:	9301      	str	r3, [sp, #4]
6010197e:	9200      	str	r2, [sp, #0]
60101980:	fea6f7ff 	bl	601016d0 <GotoRecord>
60101984:	2800      	cmp	r0, #0
60101986:	d06a      	beq	60101a5e <downheap+0xfa>
60101988:	1c20      	mov	r0, r4		(add r0, r4, #0)
6010198a:	990a      	ldr	r1, [sp, #40]
6010198c:	fe5af7ff 	bl	60101644 <ReadCurrentRecord>
60101990:	2800      	cmp	r0, #0
60101992:	d064      	beq	60101a5e <downheap+0xfa>
60101994:	9902      	ldr	r1, [sp, #8]
60101996:	1049      	asr	r1, r1, #1
60101998:	9103      	str	r1, [sp, #12]
6010199a:	e04e      	b	60101a3a <downheap+0xd6>
6010199c:	0075      	lsl	r5, r6, #1
6010199e:	1e69      	sub	r1, r5, #1
601019a0:	1c20      	mov	r0, r4		(add r0, r4, #0)
601019a2:	fe95f7ff 	bl	601016d0 <GotoRecord>
601019a6:	2800      	cmp	r0, #0
601019a8:	d059      	beq	60101a5e <downheap+0xfa>
601019aa:	1c20      	mov	r0, r4		(add r0, r4, #0)
601019ac:	1c39      	mov	r1, r7		(add r1, r7, #0)
601019ae:	fe49f7ff 	bl	60101644 <ReadCurrentRecord>
601019b2:	2800      	cmp	r0, #0
601019b4:	d053      	beq	60101a5e <downheap+0xfa>
601019b6:	9b02      	ldr	r3, [sp, #8]
601019b8:	429d      	cmp	r5, r3
601019ba:	da22      	bge	60101a02 <downheap+0x9e>
601019bc:	1c20      	mov	r0, r4		(add r0, r4, #0)
601019be:	1c29      	mov	r1, r5		(add r1, r5, #0)
601019c0:	fe86f7ff 	bl	601016d0 <GotoRecord>
601019c4:	2800      	cmp	r0, #0
601019c6:	d04a      	beq	60101a5e <downheap+0xfa>
601019c8:	1c20      	mov	r0, r4		(add r0, r4, #0)
601019ca:	990c      	ldr	r1, [sp, #48]
601019cc:	fe3af7ff 	bl	60101644 <ReadCurrentRecord>
601019d0:	2800      	cmp	r0, #0
601019d2:	d044      	beq	60101a5e <downheap+0xfa>
601019d4:	9b01      	ldr	r3, [sp, #4]
601019d6:	0419      	lsl	r1, r3, #16
601019d8:	9b0c      	ldr	r3, [sp, #48]
601019da:	1409      	asr	r1, r1, #16
601019dc:	1878      	add	r0, r7, r1
601019de:	1859      	add	r1, r3, r1
601019e0:	9b00      	ldr	r3, [sp, #0]
601019e2:	041a      	lsl	r2, r3, #16
601019e4:	1412      	asr	r2, r2, #16
601019e6:	4b20      	ldr	r3, [pc, #128]	(60101a68 <PROGRAM+0x18c0>)
601019e8:	fc10f000 	bl	6010220c <PROGRAM+0x2064>
601019ec:	2800      	cmp	r0, #0
601019ee:	da08      	bge	60101a02 <downheap+0x9e>
601019f0:	8822      	ldrh	r2, [r4, #0]
601019f2:	0412      	lsl	r2, r2, #16
601019f4:	1412      	asr	r2, r2, #16
601019f6:	1c38      	mov	r0, r7		(add r0, r7, #0)
601019f8:	990c      	ldr	r1, [sp, #48]
601019fa:	4b1c      	ldr	r3, [pc, #112]	(60101a6c <PROGRAM+0x18c4>)
601019fc:	fc06f000 	bl	6010220c <PROGRAM+0x2064>
60101a00:	3501      	add	r5, #1
60101a02:	1e71      	sub	r1, r6, #1
60101a04:	1c20      	mov	r0, r4		(add r0, r4, #0)
60101a06:	fe63f7ff 	bl	601016d0 <GotoRecord>
60101a0a:	2800      	cmp	r0, #0
60101a0c:	d027      	beq	60101a5e <downheap+0xfa>
60101a0e:	9b01      	ldr	r3, [sp, #4]
60101a10:	0419      	lsl	r1, r3, #16
60101a12:	9b0a      	ldr	r3, [sp, #40]
60101a14:	1409      	asr	r1, r1, #16
60101a16:	1858      	add	r0, r3, r1
60101a18:	9b00      	ldr	r3, [sp, #0]
60101a1a:	041a      	lsl	r2, r3, #16
60101a1c:	1879      	add	r1, r7, r1
60101a1e:	1412      	asr	r2, r2, #16
60101a20:	4b11      	ldr	r3, [pc, #68]	(60101a68 <PROGRAM+0x18c0>)
60101a22:	fbf3f000 	bl	6010220c <PROGRAM+0x2064>
60101a26:	2800      	cmp	r0, #0
60101a28:	da0a      	bge	60101a40 <downheap+0xdc>
60101a2a:	1c20      	mov	r0, r4		(add r0, r4, #0)
60101a2c:	1c39      	mov	r1, r7		(add r1, r7, #0)
60101a2e:	2201      	mov	r2, #1
60101a30:	ff3ef7ff 	bl	601018b0 <WriteRecord>
60101a34:	1c2e      	mov	r6, r5		(add r6, r5, #0)
60101a36:	2800      	cmp	r0, #0
60101a38:	d011      	beq	60101a5e <downheap+0xfa>
60101a3a:	9903      	ldr	r1, [sp, #12]
60101a3c:	428e      	cmp	r6, r1
60101a3e:	ddad      	ble	6010199c <downheap+0x38>
60101a40:	1e71      	sub	r1, r6, #1
60101a42:	1c20      	mov	r0, r4		(add r0, r4, #0)
60101a44:	fe44f7ff 	bl	601016d0 <GotoRecord>
60101a48:	2800      	cmp	r0, #0
60101a4a:	d008      	beq	60101a5e <downheap+0xfa>
60101a4c:	1c20      	mov	r0, r4		(add r0, r4, #0)
60101a4e:	990a      	ldr	r1, [sp, #40]
60101a50:	2201      	mov	r2, #1
60101a52:	ff2df7ff 	bl	601018b0 <WriteRecord>
60101a56:	2800      	cmp	r0, #0
60101a58:	d001      	beq	60101a5e <downheap+0xfa>
60101a5a:	2001      	mov	r0, #1
60101a5c:	e000      	b	60101a60 <downheap+0xfc>
60101a5e:	2000      	mov	r0, #0
60101a60:	b004      	add	sp, #16
60101a62:	bcf0      	pop	{r4, r5, r6, r7}
60101a64:	bc02      	pop	{r1}
60101a66:	4708      	bx	r1
60101a68:	3cd8      	sub	r4, #216
60101a6a:	6010      	str	r0, [r2, #0]
60101a6c:	3ce8      	sub	r4, #232
60101a6e:	6010      	str	r0, [r2, #0]

60101a70 <SearchIndexFile>:
60101a70:	b5f0      	push	{r4, r5, r6, r7, lr}
60101a72:	4e21      	ldr	r6, [pc, #132]	(60101af8 <PROGRAM+0x1950>)
60101a74:	6903      	ldr	r3, [r0, #16]
60101a76:	b082      	sub	sp, #8
60101a78:	2200      	mov	r2, #0
60101a7a:	1c04      	mov	r4, r0		(add r4, r0, #0)
60101a7c:	9101      	str	r1, [sp, #4]
60101a7e:	6032      	str	r2, [r6, #0]
60101a80:	2b01      	cmp	r3, #1
60101a82:	d107      	bne	60101a94 <SearchIndexFile+0x24>
60101a84:	fe14f7ff 	bl	601016b0 <GetTotalRecords>
60101a88:	4f1c      	ldr	r7, [pc, #112]	(60101afc <PROGRAM+0x1954>)
60101a8a:	6038      	str	r0, [r7, #0]
60101a8c:	2800      	cmp	r0, #0
60101a8e:	d104      	bne	60101a9a <SearchIndexFile+0x2a>
60101a90:	2306      	mov	r3, #6
60101a92:	6033      	str	r3, [r6, #0]
60101a94:	2001      	mov	r0, #1
60101a96:	4240      	neg	r0, r0
60101a98:	e02a      	b	60101af0 <SearchIndexFile+0x80>
60101a9a:	8820      	ldrh	r0, [r4, #0]
60101a9c:	0400      	lsl	r0, r0, #16
60101a9e:	1400      	asr	r0, r0, #16
60101aa0:	4b17      	ldr	r3, [pc, #92]	(60101b00 <PROGRAM+0x1958>)
60101aa2:	fbb3f000 	bl	6010220c <PROGRAM+0x2064>
60101aa6:	1c05      	mov	r5, r0		(add r5, r0, #0)
60101aa8:	2800      	cmp	r0, #0
60101aaa:	d101      	bne	60101ab0 <SearchIndexFile+0x40>
60101aac:	2350      	mov	r3, #80
60101aae:	e7f0      	b	60101a92 <SearchIndexFile+0x22>
60101ab0:	2301      	mov	r3, #1
60101ab2:	425b      	neg	r3, r3
60101ab4:	603b      	str	r3, [r7, #0]
60101ab6:	8823      	ldrh	r3, [r4, #0]
60101ab8:	041b      	lsl	r3, r3, #16
60101aba:	2200      	mov	r2, #0
60101abc:	141b      	asr	r3, r3, #16
60101abe:	9200      	str	r2, [sp, #0]
60101ac0:	3b04      	sub	r3, #4
60101ac2:	1c20      	mov	r0, r4		(add r0, r4, #0)
60101ac4:	1c29      	mov	r1, r5		(add r1, r5, #0)
60101ac6:	9a01      	ldr	r2, [sp, #4]
60101ac8:	fe50f7ff 	bl	6010176c <BinarySearch>
60101acc:	3001      	add	r0, #1
60101ace:	d009      	beq	60101ae4 <SearchIndexFile+0x74>
60101ad0:	8821      	ldrh	r1, [r4, #0]
60101ad2:	0409      	lsl	r1, r1, #16
60101ad4:	1409      	asr	r1, r1, #16
60101ad6:	1869      	add	r1, r5, r1
60101ad8:	3904      	sub	r1, #4
60101ada:	1c38      	mov	r0, r7		(add r0, r7, #0)
60101adc:	2204      	mov	r2, #4
60101ade:	4b09      	ldr	r3, [pc, #36]	(60101b04 <PROGRAM+0x195c>)
60101ae0:	fb94f000 	bl	6010220c <PROGRAM+0x2064>
60101ae4:	1c28      	mov	r0, r5		(add r0, r5, #0)
60101ae6:	4b08      	ldr	r3, [pc, #32]	(60101b08 <PROGRAM+0x1960>)
60101ae8:	fb90f000 	bl	6010220c <PROGRAM+0x2064>
60101aec:	4b03      	ldr	r3, [pc, #12]	(60101afc <PROGRAM+0x1954>)
60101aee:	6818      	ldr	r0, [r3, #0]
60101af0:	b002      	add	sp, #8
60101af2:	bcf0      	pop	{r4, r5, r6, r7}
60101af4:	bc02      	pop	{r1}
60101af6:	4708      	bx	r1
60101af8:	29c8      	cmp	r1, #200
60101afa:	6200      	str	r0, [r0, #32]
60101afc:	29c4      	cmp	r1, #196
60101afe:	6200      	str	r0, [r0, #32]
60101b00:	3c80      	sub	r4, #128
60101b02:	6010      	str	r0, [r2, #0]
60101b04:	3ce0      	sub	r4, #224
60101b06:	6010      	str	r0, [r2, #0]
60101b08:	3c88      	sub	r4, #136
60101b0a:	6010      	str	r0, [r2, #0]

60101b0c <DeleteRecord>:
60101b0c:	b5f0      	push	{r4, r5, r6, r7, lr}
60101b0e:	1c04      	mov	r4, r0		(add r4, r0, #0)
60101b10:	1c0d      	mov	r5, r1		(add r5, r1, #0)
60101b12:	fdcdf7ff 	bl	601016b0 <GetTotalRecords>
60101b16:	1c07      	mov	r7, r0		(add r7, r0, #0)
60101b18:	1c43      	add	r3, r0, #1
60101b1a:	d04a      	beq	60101bb2 <DeleteRecord+0xa6>
60101b1c:	1c20      	mov	r0, r4		(add r0, r4, #0)
60101b1e:	1c29      	mov	r1, r5		(add r1, r5, #0)
60101b20:	fdd6f7ff 	bl	601016d0 <GotoRecord>
60101b24:	2800      	cmp	r0, #0
60101b26:	d044      	beq	60101bb2 <DeleteRecord+0xa6>
60101b28:	8820      	ldrh	r0, [r4, #0]
60101b2a:	0400      	lsl	r0, r0, #16
60101b2c:	1400      	asr	r0, r0, #16
60101b2e:	4b23      	ldr	r3, [pc, #140]	(60101bbc <PROGRAM+0x1a14>)
60101b30:	fb6cf000 	bl	6010220c <PROGRAM+0x2064>
60101b34:	1c06      	mov	r6, r0		(add r6, r0, #0)
60101b36:	2800      	cmp	r0, #0
60101b38:	d11c      	bne	60101b74 <DeleteRecord+0x68>
60101b3a:	4a21      	ldr	r2, [pc, #132]	(60101bc0 <PROGRAM+0x1a18>)
60101b3c:	2350      	mov	r3, #80
60101b3e:	6013      	str	r3, [r2, #0]
60101b40:	e037      	b	60101bb2 <DeleteRecord+0xa6>
60101b42:	1c20      	mov	r0, r4		(add r0, r4, #0)
60101b44:	1c29      	mov	r1, r5		(add r1, r5, #0)
60101b46:	fdc3f7ff 	bl	601016d0 <GotoRecord>
60101b4a:	2800      	cmp	r0, #0
60101b4c:	d015      	beq	60101b7a <DeleteRecord+0x6e>
60101b4e:	1c20      	mov	r0, r4		(add r0, r4, #0)
60101b50:	1c31      	mov	r1, r6		(add r1, r6, #0)
60101b52:	fd77f7ff 	bl	60101644 <ReadCurrentRecord>
60101b56:	2800      	cmp	r0, #0
60101b58:	d00f      	beq	60101b7a <DeleteRecord+0x6e>
60101b5a:	1e69      	sub	r1, r5, #1
60101b5c:	1c20      	mov	r0, r4		(add r0, r4, #0)
60101b5e:	fdb7f7ff 	bl	601016d0 <GotoRecord>
60101b62:	2800      	cmp	r0, #0
60101b64:	d009      	beq	60101b7a <DeleteRecord+0x6e>
60101b66:	1c20      	mov	r0, r4		(add r0, r4, #0)
60101b68:	1c31      	mov	r1, r6		(add r1, r6, #0)
60101b6a:	2201      	mov	r2, #1
60101b6c:	fea0f7ff 	bl	601018b0 <WriteRecord>
60101b70:	2800      	cmp	r0, #0
60101b72:	d002      	beq	60101b7a <DeleteRecord+0x6e>
60101b74:	3501      	add	r5, #1
60101b76:	42bd      	cmp	r5, r7
60101b78:	dbe3      	blt	60101b42 <DeleteRecord+0x36>
60101b7a:	1c30      	mov	r0, r6		(add r0, r6, #0)
60101b7c:	4b11      	ldr	r3, [pc, #68]	(60101bc4 <PROGRAM+0x1a1c>)
60101b7e:	fb45f000 	bl	6010220c <PROGRAM+0x2064>
60101b82:	8823      	ldrh	r3, [r4, #0]
60101b84:	041b      	lsl	r3, r3, #16
60101b86:	141b      	asr	r3, r3, #16
60101b88:	1e7a      	sub	r2, r7, #1
60101b8a:	1c19      	mov	r1, r3		(add r1, r3, #0)
60101b8c:	4351      	mul	r1, r2
60101b8e:	6860      	ldr	r0, [r4, #4]
60101b90:	4b0d      	ldr	r3, [pc, #52]	(60101bc8 <PROGRAM+0x1a20>)
60101b92:	fb3bf000 	bl	6010220c <PROGRAM+0x2064>
60101b96:	3001      	add	r0, #1
60101b98:	d102      	bne	60101ba0 <DeleteRecord+0x94>
60101b9a:	4a09      	ldr	r2, [pc, #36]	(60101bc0 <PROGRAM+0x1a18>)
60101b9c:	2313      	mov	r3, #19
60101b9e:	6013      	str	r3, [r2, #0]
60101ba0:	4b07      	ldr	r3, [pc, #28]	(60101bc0 <PROGRAM+0x1a18>)
60101ba2:	681b      	ldr	r3, [r3, #0]
60101ba4:	2b00      	cmp	r3, #0
60101ba6:	d104      	bne	60101bb2 <DeleteRecord+0xa6>
60101ba8:	68e3      	ldr	r3, [r4, #12]
60101baa:	2001      	mov	r0, #1
60101bac:	3b01      	sub	r3, #1
60101bae:	60e3      	str	r3, [r4, #12]
60101bb0:	e000      	b	60101bb4 <DeleteRecord+0xa8>
60101bb2:	2000      	mov	r0, #0
60101bb4:	bcf0      	pop	{r4, r5, r6, r7}
60101bb6:	bc02      	pop	{r1}
60101bb8:	4708      	bx	r1
60101bba:	0000      	lsl	r0, r0, #0
60101bbc:	3c80      	sub	r4, #128
60101bbe:	6010      	str	r0, [r2, #0]
60101bc0:	29c8      	cmp	r1, #200
60101bc2:	6200      	str	r0, [r0, #32]
60101bc4:	3c88      	sub	r4, #136
60101bc6:	6010      	str	r0, [r2, #0]
60101bc8:	3788      	add	r7, #136
60101bca:	6010      	str	r0, [r2, #0]

60101bcc <InsertionSort>:
60101bcc:	b5f0      	push	{r4, r5, r6, r7, lr}
60101bce:	0409      	lsl	r1, r1, #16
60101bd0:	0412      	lsl	r2, r2, #16
60101bd2:	b085      	sub	sp, #20
60101bd4:	0c09      	lsr	r1, r1, #16
60101bd6:	0c12      	lsr	r2, r2, #16
60101bd8:	9101      	str	r1, [sp, #4]
60101bda:	1c05      	mov	r5, r0		(add r5, r0, #0)
60101bdc:	9200      	str	r2, [sp, #0]
60101bde:	fd67f7ff 	bl	601016b0 <GetTotalRecords>
60101be2:	1c01      	mov	r1, r0		(add r1, r0, #0)
60101be4:	9004      	str	r0, [sp, #16]
60101be6:	3101      	add	r1, #1
60101be8:	d100      	bne	60101bec <InsertionSort+0x20>
60101bea:	e080      	b	60101cee <InsertionSort+0x122>
60101bec:	882b      	ldrh	r3, [r5, #0]
60101bee:	041b      	lsl	r3, r3, #16
60101bf0:	1418      	asr	r0, r3, #16
60101bf2:	9901      	ldr	r1, [sp, #4]
60101bf4:	9b00      	ldr	r3, [sp, #0]
60101bf6:	041a      	lsl	r2, r3, #16
60101bf8:	040b      	lsl	r3, r1, #16
60101bfa:	1412      	asr	r2, r2, #16
60101bfc:	141b      	asr	r3, r3, #16
60101bfe:	18d2      	add	r2, r2, r3
60101c00:	4c3d      	ldr	r4, [pc, #244]	(60101cf8 <PROGRAM+0x1b50>)
60101c02:	4290      	cmp	r0, r2
60101c04:	da03      	bge	60101c0e <InsertionSort+0x42>
60101c06:	2380      	mov	r3, #128
60101c08:	005b      	lsl	r3, r3, #1
60101c0a:	6023      	str	r3, [r4, #0]
60101c0c:	e06f      	b	60101cee <InsertionSort+0x122>
60101c0e:	2350      	mov	r3, #80
60101c10:	6023      	str	r3, [r4, #0]
60101c12:	4e3a      	ldr	r6, [pc, #232]	(60101cfc <PROGRAM+0x1b54>)
60101c14:	fafdf000 	bl	60102212 <PROGRAM+0x206a>
60101c18:	1c07      	mov	r7, r0		(add r7, r0, #0)
60101c1a:	2800      	cmp	r0, #0
60101c1c:	d061      	beq	60101ce2 <InsertionSort+0x116>
60101c1e:	8828      	ldrh	r0, [r5, #0]
60101c20:	0400      	lsl	r0, r0, #16
60101c22:	1400      	asr	r0, r0, #16
60101c24:	faf5f000 	bl	60102212 <PROGRAM+0x206a>
60101c28:	1c06      	mov	r6, r0		(add r6, r0, #0)
60101c2a:	2800      	cmp	r0, #0
60101c2c:	d055      	beq	60101cda <InsertionSort+0x10e>
60101c2e:	2300      	mov	r3, #0
60101c30:	2201      	mov	r2, #1
60101c32:	6023      	str	r3, [r4, #0]
60101c34:	9202      	str	r2, [sp, #8]
60101c36:	e048      	b	60101cca <InsertionSort+0xfe>
60101c38:	1c28      	mov	r0, r5		(add r0, r5, #0)
60101c3a:	9902      	ldr	r1, [sp, #8]
60101c3c:	fd48f7ff 	bl	601016d0 <GotoRecord>
60101c40:	2800      	cmp	r0, #0
60101c42:	d046      	beq	60101cd2 <InsertionSort+0x106>
60101c44:	1c28      	mov	r0, r5		(add r0, r5, #0)
60101c46:	1c39      	mov	r1, r7		(add r1, r7, #0)
60101c48:	fcfcf7ff 	bl	60101644 <ReadCurrentRecord>
60101c4c:	2800      	cmp	r0, #0
60101c4e:	d040      	beq	60101cd2 <InsertionSort+0x106>
60101c50:	9c02      	ldr	r4, [sp, #8]
60101c52:	e028      	b	60101ca6 <InsertionSort+0xda>
60101c54:	1e63      	sub	r3, r4, #1
60101c56:	1c28      	mov	r0, r5		(add r0, r5, #0)
60101c58:	1c19      	mov	r1, r3		(add r1, r3, #0)
60101c5a:	9303      	str	r3, [sp, #12]
60101c5c:	fd38f7ff 	bl	601016d0 <GotoRecord>
60101c60:	2800      	cmp	r0, #0
60101c62:	d036      	beq	60101cd2 <InsertionSort+0x106>
60101c64:	1c28      	mov	r0, r5		(add r0, r5, #0)
60101c66:	1c31      	mov	r1, r6		(add r1, r6, #0)
60101c68:	fcecf7ff 	bl	60101644 <ReadCurrentRecord>
60101c6c:	2800      	cmp	r0, #0
60101c6e:	d030      	beq	60101cd2 <InsertionSort+0x106>
60101c70:	9a01      	ldr	r2, [sp, #4]
60101c72:	9b00      	ldr	r3, [sp, #0]
60101c74:	0411      	lsl	r1, r2, #16
60101c76:	1409      	asr	r1, r1, #16
60101c78:	041a      	lsl	r2, r3, #16
60101c7a:	1878      	add	r0, r7, r1
60101c7c:	1412      	asr	r2, r2, #16
60101c7e:	1871      	add	r1, r6, r1
60101c80:	4b1f      	ldr	r3, [pc, #124]	(60101d00 <PROGRAM+0x1b58>)
60101c82:	fac3f000 	bl	6010220c <PROGRAM+0x2064>
60101c86:	2800      	cmp	r0, #0
60101c88:	dc0f      	bgt	60101caa <InsertionSort+0xde>
60101c8a:	1c28      	mov	r0, r5		(add r0, r5, #0)
60101c8c:	1c21      	mov	r1, r4		(add r1, r4, #0)
60101c8e:	fd1ff7ff 	bl	601016d0 <GotoRecord>
60101c92:	2800      	cmp	r0, #0
60101c94:	d01d      	beq	60101cd2 <InsertionSort+0x106>
60101c96:	1c28      	mov	r0, r5		(add r0, r5, #0)
60101c98:	1c31      	mov	r1, r6		(add r1, r6, #0)
60101c9a:	2201      	mov	r2, #1
60101c9c:	fe08f7ff 	bl	601018b0 <WriteRecord>
60101ca0:	2800      	cmp	r0, #0
60101ca2:	d016      	beq	60101cd2 <InsertionSort+0x106>
60101ca4:	9c03      	ldr	r4, [sp, #12]
60101ca6:	2c00      	cmp	r4, #0
60101ca8:	dcd4      	bgt	60101c54 <InsertionSort+0x88>
60101caa:	1c28      	mov	r0, r5		(add r0, r5, #0)
60101cac:	1c21      	mov	r1, r4		(add r1, r4, #0)
60101cae:	fd0ff7ff 	bl	601016d0 <GotoRecord>
60101cb2:	2800      	cmp	r0, #0
60101cb4:	d00d      	beq	60101cd2 <InsertionSort+0x106>
60101cb6:	1c28      	mov	r0, r5		(add r0, r5, #0)
60101cb8:	1c39      	mov	r1, r7		(add r1, r7, #0)
60101cba:	2201      	mov	r2, #1
60101cbc:	fdf8f7ff 	bl	601018b0 <WriteRecord>
60101cc0:	2800      	cmp	r0, #0
60101cc2:	d006      	beq	60101cd2 <InsertionSort+0x106>
60101cc4:	9902      	ldr	r1, [sp, #8]
60101cc6:	3101      	add	r1, #1
60101cc8:	9102      	str	r1, [sp, #8]
60101cca:	9a02      	ldr	r2, [sp, #8]
60101ccc:	9b04      	ldr	r3, [sp, #16]
60101cce:	429a      	cmp	r2, r3
60101cd0:	dbb2      	blt	60101c38 <InsertionSort+0x6c>
60101cd2:	1c30      	mov	r0, r6		(add r0, r6, #0)
60101cd4:	4b0b      	ldr	r3, [pc, #44]	(60101d04 <PROGRAM+0x1b5c>)
60101cd6:	fa99f000 	bl	6010220c <PROGRAM+0x2064>
60101cda:	1c38      	mov	r0, r7		(add r0, r7, #0)
60101cdc:	4b09      	ldr	r3, [pc, #36]	(60101d04 <PROGRAM+0x1b5c>)
60101cde:	fa95f000 	bl	6010220c <PROGRAM+0x2064>
60101ce2:	4b05      	ldr	r3, [pc, #20]	(60101cf8 <PROGRAM+0x1b50>)
60101ce4:	681b      	ldr	r3, [r3, #0]
60101ce6:	2b00      	cmp	r3, #0
60101ce8:	d101      	bne	60101cee <InsertionSort+0x122>
60101cea:	2001      	mov	r0, #1
60101cec:	e000      	b	60101cf0 <InsertionSort+0x124>
60101cee:	2000      	mov	r0, #0
60101cf0:	b005      	add	sp, #20
60101cf2:	bcf0      	pop	{r4, r5, r6, r7}
60101cf4:	bc02      	pop	{r1}
60101cf6:	4708      	bx	r1
60101cf8:	29c8      	cmp	r1, #200
60101cfa:	6200      	str	r0, [r0, #32]
60101cfc:	3c80      	sub	r4, #128
60101cfe:	6010      	str	r0, [r2, #0]
60101d00:	3cd8      	sub	r4, #216
60101d02:	6010      	str	r0, [r2, #0]
60101d04:	3c88      	sub	r4, #136
60101d06:	6010      	str	r0, [r2, #0]

60101d08 <AddNewSearchkeyToIndex>:
60101d08:	b5f0      	push	{r4, r5, r6, r7, lr}
60101d0a:	4c22      	ldr	r4, [pc, #136]	(60101d94 <PROGRAM+0x1bec>)
60101d0c:	2300      	mov	r3, #0
60101d0e:	6023      	str	r3, [r4, #0]
60101d10:	6903      	ldr	r3, [r0, #16]
60101d12:	b081      	sub	sp, #4
60101d14:	1c05      	mov	r5, r0		(add r5, r0, #0)
60101d16:	1c0f      	mov	r7, r1		(add r7, r1, #0)
60101d18:	9200      	str	r2, [sp, #0]
60101d1a:	2b01      	cmp	r3, #1
60101d1c:	d135      	bne	60101d8a <AddNewSearchkeyToIndex+0x82>
60101d1e:	8800      	ldrh	r0, [r0, #0]
60101d20:	0400      	lsl	r0, r0, #16
60101d22:	1400      	asr	r0, r0, #16
60101d24:	4b1c      	ldr	r3, [pc, #112]	(60101d98 <PROGRAM+0x1bf0>)
60101d26:	fa71f000 	bl	6010220c <PROGRAM+0x2064>
60101d2a:	1c06      	mov	r6, r0		(add r6, r0, #0)
60101d2c:	2800      	cmp	r0, #0
60101d2e:	d104      	bne	60101d3a <AddNewSearchkeyToIndex+0x32>
60101d30:	2001      	mov	r0, #1
60101d32:	2350      	mov	r3, #80
60101d34:	4240      	neg	r0, r0
60101d36:	6023      	str	r3, [r4, #0]
60101d38:	e028      	b	60101d8c <AddNewSearchkeyToIndex+0x84>
60101d3a:	882a      	ldrh	r2, [r5, #0]
60101d3c:	0412      	lsl	r2, r2, #16
60101d3e:	1412      	asr	r2, r2, #16
60101d40:	3a04      	sub	r2, #4
60101d42:	1c39      	mov	r1, r7		(add r1, r7, #0)
60101d44:	4c15      	ldr	r4, [pc, #84]	(60101d9c <PROGRAM+0x1bf4>)
60101d46:	fa62f000 	bl	6010220e <PROGRAM+0x2066>
60101d4a:	8828      	ldrh	r0, [r5, #0]
60101d4c:	0400      	lsl	r0, r0, #16
60101d4e:	1400      	asr	r0, r0, #16
60101d50:	1830      	add	r0, r6, r0
60101d52:	4669      	mov	r1, sp
60101d54:	2204      	mov	r2, #4
60101d56:	3804      	sub	r0, #4
60101d58:	fa59f000 	bl	6010220e <PROGRAM+0x2066>
60101d5c:	1c28      	mov	r0, r5		(add r0, r5, #0)
60101d5e:	1c31      	mov	r1, r6		(add r1, r6, #0)
60101d60:	2202      	mov	r2, #2
60101d62:	fda5f7ff 	bl	601018b0 <WriteRecord>
60101d66:	4b0e      	ldr	r3, [pc, #56]	(60101da0 <PROGRAM+0x1bf8>)
60101d68:	2800      	cmp	r0, #0
60101d6a:	d00b      	beq	60101d84 <AddNewSearchkeyToIndex+0x7c>
60101d6c:	1c30      	mov	r0, r6		(add r0, r6, #0)
60101d6e:	fa4df000 	bl	6010220c <PROGRAM+0x2064>
60101d72:	882a      	ldrh	r2, [r5, #0]
60101d74:	3a04      	sub	r2, #4
60101d76:	0412      	lsl	r2, r2, #16
60101d78:	1412      	asr	r2, r2, #16
60101d7a:	1c28      	mov	r0, r5		(add r0, r5, #0)
60101d7c:	2100      	mov	r1, #0
60101d7e:	ff25f7ff 	bl	60101bcc <InsertionSort>
60101d82:	e003      	b	60101d8c <AddNewSearchkeyToIndex+0x84>
60101d84:	1c30      	mov	r0, r6		(add r0, r6, #0)
60101d86:	fa41f000 	bl	6010220c <PROGRAM+0x2064>
60101d8a:	2000      	mov	r0, #0
60101d8c:	b001      	add	sp, #4
60101d8e:	bcf0      	pop	{r4, r5, r6, r7}
60101d90:	bc02      	pop	{r1}
60101d92:	4708      	bx	r1
60101d94:	29c8      	cmp	r1, #200
60101d96:	6200      	str	r0, [r0, #32]
60101d98:	3c80      	sub	r4, #128
60101d9a:	6010      	str	r0, [r2, #0]
60101d9c:	3ce0      	sub	r4, #224
60101d9e:	6010      	str	r0, [r2, #0]
60101da0:	3c88      	sub	r4, #136
60101da2:	6010      	str	r0, [r2, #0]

60101da4 <HeapSort>:
60101da4:	b5f0      	push	{r4, r5, r6, r7, lr}
60101da6:	0409      	lsl	r1, r1, #16
60101da8:	0412      	lsl	r2, r2, #16
60101daa:	b089      	sub	sp, #36
60101dac:	1c05      	mov	r5, r0		(add r5, r0, #0)
60101dae:	0c0e      	lsr	r6, r1, #16
60101db0:	0c14      	lsr	r4, r2, #16
60101db2:	fc7df7ff 	bl	601016b0 <GetTotalRecords>
60101db6:	1c07      	mov	r7, r0		(add r7, r0, #0)
60101db8:	1c41      	add	r1, r0, #1
60101dba:	d100      	bne	60101dbe <HeapSort+0x1a>
60101dbc:	e08d      	b	60101eda <HeapSort+0x136>
60101dbe:	882a      	ldrh	r2, [r5, #0]
60101dc0:	0423      	lsl	r3, r4, #16
60101dc2:	141b      	asr	r3, r3, #16
60101dc4:	9307      	str	r3, [sp, #28]
60101dc6:	0412      	lsl	r2, r2, #16
60101dc8:	0433      	lsl	r3, r6, #16
60101dca:	1410      	asr	r0, r2, #16
60101dcc:	9a07      	ldr	r2, [sp, #28]
60101dce:	141b      	asr	r3, r3, #16
60101dd0:	9308      	str	r3, [sp, #32]
60101dd2:	18d3      	add	r3, r2, r3
60101dd4:	4e43      	ldr	r6, [pc, #268]	(60101ee4 <PROGRAM+0x1d3c>)
60101dd6:	4298      	cmp	r0, r3
60101dd8:	da03      	bge	60101de2 <HeapSort+0x3e>
60101dda:	2380      	mov	r3, #128
60101ddc:	005b      	lsl	r3, r3, #1
60101dde:	6033      	str	r3, [r6, #0]
60101de0:	e07b      	b	60101eda <HeapSort+0x136>
60101de2:	2350      	mov	r3, #80
60101de4:	6033      	str	r3, [r6, #0]
60101de6:	4c40      	ldr	r4, [pc, #256]	(60101ee8 <PROGRAM+0x1d40>)
60101de8:	fa11f000 	bl	6010220e <PROGRAM+0x2066>
60101dec:	9006      	str	r0, [sp, #24]
60101dee:	2800      	cmp	r0, #0
60101df0:	d06d      	beq	60101ece <HeapSort+0x12a>
60101df2:	8828      	ldrh	r0, [r5, #0]
60101df4:	0400      	lsl	r0, r0, #16
60101df6:	1400      	asr	r0, r0, #16
60101df8:	fa09f000 	bl	6010220e <PROGRAM+0x2066>
60101dfc:	9005      	str	r0, [sp, #20]
60101dfe:	2800      	cmp	r0, #0
60101e00:	d061      	beq	60101ec6 <HeapSort+0x122>
60101e02:	8828      	ldrh	r0, [r5, #0]
60101e04:	0400      	lsl	r0, r0, #16
60101e06:	1400      	asr	r0, r0, #16
60101e08:	fa01f000 	bl	6010220e <PROGRAM+0x2066>
60101e0c:	9004      	str	r0, [sp, #16]
60101e0e:	2800      	cmp	r0, #0
60101e10:	d055      	beq	60101ebe <HeapSort+0x11a>
60101e12:	2300      	mov	r3, #0
60101e14:	107c      	asr	r4, r7, #1
60101e16:	6033      	str	r3, [r6, #0]
60101e18:	e010      	b	60101e3c <HeapSort+0x98>
60101e1a:	9b07      	ldr	r3, [sp, #28]
60101e1c:	9906      	ldr	r1, [sp, #24]
60101e1e:	9a05      	ldr	r2, [sp, #20]
60101e20:	9300      	str	r3, [sp, #0]
60101e22:	9b04      	ldr	r3, [sp, #16]
60101e24:	9101      	str	r1, [sp, #4]
60101e26:	9202      	str	r2, [sp, #8]
60101e28:	9303      	str	r3, [sp, #12]
60101e2a:	1c28      	mov	r0, r5		(add r0, r5, #0)
60101e2c:	1c39      	mov	r1, r7		(add r1, r7, #0)
60101e2e:	1c22      	mov	r2, r4		(add r2, r4, #0)
60101e30:	9b08      	ldr	r3, [sp, #32]
60101e32:	fd97f7ff 	bl	60101964 <downheap>
60101e36:	2800      	cmp	r0, #0
60101e38:	d03d      	beq	60101eb6 <HeapSort+0x112>
60101e3a:	3c01      	sub	r4, #1
60101e3c:	2c00      	cmp	r4, #0
60101e3e:	dcec      	bgt	60101e1a <HeapSort+0x76>
60101e40:	1c3c      	mov	r4, r7		(add r4, r7, #0)
60101e42:	e036      	b	60101eb2 <HeapSort+0x10e>
60101e44:	1c28      	mov	r0, r5		(add r0, r5, #0)
60101e46:	9906      	ldr	r1, [sp, #24]
60101e48:	fd1ef7ff 	bl	60101888 <ReadFirstRecord>
60101e4c:	2800      	cmp	r0, #0
60101e4e:	d032      	beq	60101eb6 <HeapSort+0x112>
60101e50:	3c01      	sub	r4, #1
60101e52:	1c28      	mov	r0, r5		(add r0, r5, #0)
60101e54:	1c21      	mov	r1, r4		(add r1, r4, #0)
60101e56:	fc3bf7ff 	bl	601016d0 <GotoRecord>
60101e5a:	2800      	cmp	r0, #0
60101e5c:	d02b      	beq	60101eb6 <HeapSort+0x112>
60101e5e:	1c28      	mov	r0, r5		(add r0, r5, #0)
60101e60:	9905      	ldr	r1, [sp, #20]
60101e62:	fbeff7ff 	bl	60101644 <ReadCurrentRecord>
60101e66:	2800      	cmp	r0, #0
60101e68:	d025      	beq	60101eb6 <HeapSort+0x112>
60101e6a:	1c28      	mov	r0, r5		(add r0, r5, #0)
60101e6c:	9906      	ldr	r1, [sp, #24]
60101e6e:	2201      	mov	r2, #1
60101e70:	fd1ef7ff 	bl	601018b0 <WriteRecord>
60101e74:	2800      	cmp	r0, #0
60101e76:	d01e      	beq	60101eb6 <HeapSort+0x112>
60101e78:	1c28      	mov	r0, r5		(add r0, r5, #0)
60101e7a:	2100      	mov	r1, #0
60101e7c:	fc28f7ff 	bl	601016d0 <GotoRecord>
60101e80:	2800      	cmp	r0, #0
60101e82:	d018      	beq	60101eb6 <HeapSort+0x112>
60101e84:	1c28      	mov	r0, r5		(add r0, r5, #0)
60101e86:	9905      	ldr	r1, [sp, #20]
60101e88:	2201      	mov	r2, #1
60101e8a:	fd11f7ff 	bl	601018b0 <WriteRecord>
60101e8e:	2800      	cmp	r0, #0
60101e90:	d011      	beq	60101eb6 <HeapSort+0x112>
60101e92:	9907      	ldr	r1, [sp, #28]
60101e94:	9a06      	ldr	r2, [sp, #24]
60101e96:	9b05      	ldr	r3, [sp, #20]
60101e98:	9100      	str	r1, [sp, #0]
60101e9a:	9904      	ldr	r1, [sp, #16]
60101e9c:	9201      	str	r2, [sp, #4]
60101e9e:	9302      	str	r3, [sp, #8]
60101ea0:	9103      	str	r1, [sp, #12]
60101ea2:	1c28      	mov	r0, r5		(add r0, r5, #0)
60101ea4:	1c21      	mov	r1, r4		(add r1, r4, #0)
60101ea6:	2201      	mov	r2, #1
60101ea8:	9b08      	ldr	r3, [sp, #32]
60101eaa:	fd5bf7ff 	bl	60101964 <downheap>
60101eae:	2800      	cmp	r0, #0
60101eb0:	d001      	beq	60101eb6 <HeapSort+0x112>
60101eb2:	2c01      	cmp	r4, #1
60101eb4:	dcc6      	bgt	60101e44 <HeapSort+0xa0>
60101eb6:	9804      	ldr	r0, [sp, #16]
60101eb8:	4b0c      	ldr	r3, [pc, #48]	(60101eec <PROGRAM+0x1d44>)
60101eba:	f9a7f000 	bl	6010220c <PROGRAM+0x2064>
60101ebe:	9805      	ldr	r0, [sp, #20]
60101ec0:	4b0a      	ldr	r3, [pc, #40]	(60101eec <PROGRAM+0x1d44>)
60101ec2:	f9a3f000 	bl	6010220c <PROGRAM+0x2064>
60101ec6:	9806      	ldr	r0, [sp, #24]
60101ec8:	4b08      	ldr	r3, [pc, #32]	(60101eec <PROGRAM+0x1d44>)
60101eca:	f99ff000 	bl	6010220c <PROGRAM+0x2064>
60101ece:	4b05      	ldr	r3, [pc, #20]	(60101ee4 <PROGRAM+0x1d3c>)
60101ed0:	681b      	ldr	r3, [r3, #0]
60101ed2:	2b00      	cmp	r3, #0
60101ed4:	d101      	bne	60101eda <HeapSort+0x136>
60101ed6:	2001      	mov	r0, #1
60101ed8:	e000      	b	60101edc <HeapSort+0x138>
60101eda:	2000      	mov	r0, #0
60101edc:	b009      	add	sp, #36
60101ede:	bcf0      	pop	{r4, r5, r6, r7}
60101ee0:	bc02      	pop	{r1}
60101ee2:	4708      	bx	r1
60101ee4:	29c8      	cmp	r1, #200
60101ee6:	6200      	str	r0, [r0, #32]
60101ee8:	3c80      	sub	r4, #128
60101eea:	6010      	str	r0, [r2, #0]
60101eec:	3c88      	sub	r4, #136
60101eee:	6010      	str	r0, [r2, #0]

60101ef0 <QuickSort>:
60101ef0:	b5f0      	push	{r4, r5, r6, r7, lr}
60101ef2:	0409      	lsl	r1, r1, #16
60101ef4:	0412      	lsl	r2, r2, #16
60101ef6:	b08d      	sub	sp, #52
60101ef8:	0c09      	lsr	r1, r1, #16
60101efa:	0c12      	lsr	r2, r2, #16
60101efc:	9106      	str	r1, [sp, #24]
60101efe:	1c07      	mov	r7, r0		(add r7, r0, #0)
60101f00:	9205      	str	r2, [sp, #20]
60101f02:	fbd5f7ff 	bl	601016b0 <GetTotalRecords>
60101f06:	1c01      	mov	r1, r0		(add r1, r0, #0)
60101f08:	9009      	str	r0, [sp, #36]
60101f0a:	3101      	add	r1, #1
60101f0c:	d100      	bne	60101f10 <QuickSort+0x20>
60101f0e:	e0ee      	b	601020ee <QuickSort+0x1fe>
60101f10:	883b      	ldrh	r3, [r7, #0]
60101f12:	041b      	lsl	r3, r3, #16
60101f14:	9906      	ldr	r1, [sp, #24]
60101f16:	1418      	asr	r0, r3, #16
60101f18:	9b05      	ldr	r3, [sp, #20]
60101f1a:	041a      	lsl	r2, r3, #16
60101f1c:	040b      	lsl	r3, r1, #16
60101f1e:	1412      	asr	r2, r2, #16
60101f20:	141b      	asr	r3, r3, #16
60101f22:	18d2      	add	r2, r2, r3
60101f24:	4974      	ldr	r1, [pc, #464]	(601020f8 <PROGRAM+0x1f50>)
60101f26:	4290      	cmp	r0, r2
60101f28:	da03      	bge	60101f32 <QuickSort+0x42>
60101f2a:	2380      	mov	r3, #128
60101f2c:	005b      	lsl	r3, r3, #1
60101f2e:	600b      	str	r3, [r1, #0]
60101f30:	e0dd      	b	601020ee <QuickSort+0x1fe>
60101f32:	2350      	mov	r3, #80
60101f34:	600b      	str	r3, [r1, #0]
60101f36:	4c71      	ldr	r4, [pc, #452]	(601020fc <PROGRAM+0x1f54>)
60101f38:	f969f000 	bl	6010220e <PROGRAM+0x2066>
60101f3c:	9004      	str	r0, [sp, #16]
60101f3e:	2800      	cmp	r0, #0
60101f40:	d100      	bne	60101f44 <QuickSort+0x54>
60101f42:	e0ce      	b	601020e2 <QuickSort+0x1f2>
60101f44:	8838      	ldrh	r0, [r7, #0]
60101f46:	0400      	lsl	r0, r0, #16
60101f48:	1400      	asr	r0, r0, #16
60101f4a:	f960f000 	bl	6010220e <PROGRAM+0x2066>
60101f4e:	9003      	str	r0, [sp, #12]
60101f50:	2800      	cmp	r0, #0
60101f52:	d100      	bne	60101f56 <QuickSort+0x66>
60101f54:	e0c1      	b	601020da <QuickSort+0x1ea>
60101f56:	8838      	ldrh	r0, [r7, #0]
60101f58:	0400      	lsl	r0, r0, #16
60101f5a:	1400      	asr	r0, r0, #16
60101f5c:	f957f000 	bl	6010220e <PROGRAM+0x2066>
60101f60:	9002      	str	r0, [sp, #8]
60101f62:	2800      	cmp	r0, #0
60101f64:	d100      	bne	60101f68 <QuickSort+0x78>
60101f66:	e0b4      	b	601020d2 <QuickSort+0x1e2>
60101f68:	9c09      	ldr	r4, [sp, #36]
60101f6a:	4e65      	ldr	r6, [pc, #404]	(60102100 <PROGRAM+0x1f58>)
60101f6c:	2501      	mov	r5, #1
60101f6e:	e000      	b	60101f72 <QuickSort+0x82>
60101f70:	3501      	add	r5, #1
60101f72:	1c20      	mov	r0, r4		(add r0, r4, #0)
60101f74:	210a      	mov	r1, #10
60101f76:	f94cf000 	bl	60102212 <PROGRAM+0x206a>
60101f7a:	1c04      	mov	r4, r0		(add r4, r0, #0)
60101f7c:	2800      	cmp	r0, #0
60101f7e:	d1f7      	bne	60101f70 <QuickSort+0x80>
60101f80:	012b      	lsl	r3, r5, #4
60101f82:	1c1e      	mov	r6, r3		(add r6, r3, #0)
60101f84:	3628      	add	r6, #40
60101f86:	1c30      	mov	r0, r6		(add r0, r6, #0)
60101f88:	4d5c      	ldr	r5, [pc, #368]	(601020fc <PROGRAM+0x1f54>)
60101f8a:	f941f000 	bl	60102210 <PROGRAM+0x2068>
60101f8e:	9001      	str	r0, [sp, #4]
60101f90:	2800      	cmp	r0, #0
60101f92:	d100      	bne	60101f96 <QuickSort+0xa6>
60101f94:	e099      	b	601020ca <QuickSort+0x1da>
60101f96:	1c30      	mov	r0, r6		(add r0, r6, #0)
60101f98:	f93af000 	bl	60102210 <PROGRAM+0x2068>
60101f9c:	9000      	str	r0, [sp, #0]
60101f9e:	2800      	cmp	r0, #0
60101fa0:	d100      	bne	60101fa4 <QuickSort+0xb4>
60101fa2:	e08e      	b	601020c2 <QuickSort+0x1d2>
60101fa4:	4b54      	ldr	r3, [pc, #336]	(601020f8 <PROGRAM+0x1f50>)
60101fa6:	9a01      	ldr	r2, [sp, #4]
60101fa8:	601c      	str	r4, [r3, #0]
60101faa:	9b09      	ldr	r3, [sp, #36]
60101fac:	6054      	str	r4, [r2, #4]
60101fae:	3b01      	sub	r3, #1
60101fb0:	2201      	mov	r2, #1
60101fb2:	6043      	str	r3, [r0, #4]
60101fb4:	920c      	str	r2, [sp, #48]
60101fb6:	990c      	ldr	r1, [sp, #48]
60101fb8:	9a01      	ldr	r2, [sp, #4]
60101fba:	008b      	lsl	r3, r1, #2
60101fbc:	589a      	ldr	r2, [r3, r2]
60101fbe:	9900      	ldr	r1, [sp, #0]
60101fc0:	920a      	str	r2, [sp, #40]
60101fc2:	9a0c      	ldr	r2, [sp, #48]
60101fc4:	585b      	ldr	r3, [r3, r1]
60101fc6:	3a01      	sub	r2, #1
60101fc8:	930b      	str	r3, [sp, #44]
60101fca:	920c      	str	r2, [sp, #48]
60101fcc:	9b0a      	ldr	r3, [sp, #40]
60101fce:	9a0b      	ldr	r2, [sp, #44]
60101fd0:	1899      	add	r1, r3, r2
60101fd2:	1049      	asr	r1, r1, #1
60101fd4:	1c38      	mov	r0, r7		(add r0, r7, #0)
60101fd6:	fb7bf7ff 	bl	601016d0 <GotoRecord>
60101fda:	2800      	cmp	r0, #0
60101fdc:	d06d      	beq	601020ba <QuickSort+0x1ca>
60101fde:	1c38      	mov	r0, r7		(add r0, r7, #0)
60101fe0:	9904      	ldr	r1, [sp, #16]
60101fe2:	fb2ff7ff 	bl	60101644 <ReadCurrentRecord>
60101fe6:	2800      	cmp	r0, #0
60101fe8:	d067      	beq	601020ba <QuickSort+0x1ca>
60101fea:	9c0a      	ldr	r4, [sp, #40]
60101fec:	9d0b      	ldr	r5, [sp, #44]
60101fee:	e000      	b	60101ff2 <QuickSort+0x102>
60101ff0:	3401      	add	r4, #1
60101ff2:	1c38      	mov	r0, r7		(add r0, r7, #0)
60101ff4:	1c21      	mov	r1, r4		(add r1, r4, #0)
60101ff6:	fb6bf7ff 	bl	601016d0 <GotoRecord>
60101ffa:	2800      	cmp	r0, #0
60101ffc:	d05d      	beq	601020ba <QuickSort+0x1ca>
60101ffe:	1c38      	mov	r0, r7		(add r0, r7, #0)
60102000:	9903      	ldr	r1, [sp, #12]
60102002:	fb1ff7ff 	bl	60101644 <ReadCurrentRecord>
60102006:	2800      	cmp	r0, #0
60102008:	d057      	beq	601020ba <QuickSort+0x1ca>
6010200a:	9906      	ldr	r1, [sp, #24]
6010200c:	9a04      	ldr	r2, [sp, #16]
6010200e:	040b      	lsl	r3, r1, #16
60102010:	9905      	ldr	r1, [sp, #20]
60102012:	141e      	asr	r6, r3, #16
60102014:	1992      	add	r2, r2, r6
60102016:	040b      	lsl	r3, r1, #16
60102018:	9207      	str	r2, [sp, #28]
6010201a:	141b      	asr	r3, r3, #16
6010201c:	9a03      	ldr	r2, [sp, #12]
6010201e:	9308      	str	r3, [sp, #32]
60102020:	1990      	add	r0, r2, r6
60102022:	4b38      	ldr	r3, [pc, #224]	(60102104 <PROGRAM+0x1f5c>)
60102024:	9907      	ldr	r1, [sp, #28]
60102026:	9a08      	ldr	r2, [sp, #32]
60102028:	f8f0f000 	bl	6010220c <PROGRAM+0x2064>
6010202c:	2800      	cmp	r0, #0
6010202e:	dbdf      	blt	60101ff0 <QuickSort+0x100>
60102030:	e000      	b	60102034 <QuickSort+0x144>
60102032:	3d01      	sub	r5, #1
60102034:	1c38      	mov	r0, r7		(add r0, r7, #0)
60102036:	1c29      	mov	r1, r5		(add r1, r5, #0)
60102038:	fb4af7ff 	bl	601016d0 <GotoRecord>
6010203c:	2800      	cmp	r0, #0
6010203e:	d03c      	beq	601020ba <QuickSort+0x1ca>
60102040:	1c38      	mov	r0, r7		(add r0, r7, #0)
60102042:	9902      	ldr	r1, [sp, #8]
60102044:	fafef7ff 	bl	60101644 <ReadCurrentRecord>
60102048:	2800      	cmp	r0, #0
6010204a:	d036      	beq	601020ba <QuickSort+0x1ca>
6010204c:	9b02      	ldr	r3, [sp, #8]
6010204e:	9907      	ldr	r1, [sp, #28]
60102050:	1998      	add	r0, r3, r6
60102052:	9a08      	ldr	r2, [sp, #32]
60102054:	4b2b      	ldr	r3, [pc, #172]	(60102104 <PROGRAM+0x1f5c>)
60102056:	f8d9f000 	bl	6010220c <PROGRAM+0x2064>
6010205a:	2800      	cmp	r0, #0
6010205c:	dce9      	bgt	60102032 <QuickSort+0x142>
6010205e:	42ac      	cmp	r4, r5
60102060:	dc17      	bgt	60102092 <QuickSort+0x1a2>
60102062:	1c38      	mov	r0, r7		(add r0, r7, #0)
60102064:	9903      	ldr	r1, [sp, #12]
60102066:	2201      	mov	r2, #1
60102068:	fc22f7ff 	bl	601018b0 <WriteRecord>
6010206c:	2800      	cmp	r0, #0
6010206e:	d024      	beq	601020ba <QuickSort+0x1ca>
60102070:	1c38      	mov	r0, r7		(add r0, r7, #0)
60102072:	1c21      	mov	r1, r4		(add r1, r4, #0)
60102074:	fb2cf7ff 	bl	601016d0 <GotoRecord>
60102078:	2800      	cmp	r0, #0
6010207a:	d01e      	beq	601020ba <QuickSort+0x1ca>
6010207c:	1c38      	mov	r0, r7		(add r0, r7, #0)
6010207e:	9902      	ldr	r1, [sp, #8]
60102080:	2201      	mov	r2, #1
60102082:	fc15f7ff 	bl	601018b0 <WriteRecord>
60102086:	2800      	cmp	r0, #0
60102088:	d017      	beq	601020ba <QuickSort+0x1ca>
6010208a:	3401      	add	r4, #1
6010208c:	3d01      	sub	r5, #1
6010208e:	42ac      	cmp	r4, r5
60102090:	ddaf      	ble	60101ff2 <QuickSort+0x102>
60102092:	990b      	ldr	r1, [sp, #44]
60102094:	428c      	cmp	r4, r1
60102096:	da08      	bge	601020aa <QuickSort+0x1ba>
60102098:	9a0c      	ldr	r2, [sp, #48]
6010209a:	9901      	ldr	r1, [sp, #4]
6010209c:	3201      	add	r2, #1
6010209e:	0093      	lsl	r3, r2, #2
601020a0:	505c      	str	r4, [r3, r1]
601020a2:	920c      	str	r2, [sp, #48]
601020a4:	990b      	ldr	r1, [sp, #44]
601020a6:	9a00      	ldr	r2, [sp, #0]
601020a8:	5099      	str	r1, [r3, r2]
601020aa:	9a0a      	ldr	r2, [sp, #40]
601020ac:	950b      	str	r5, [sp, #44]
601020ae:	42aa      	cmp	r2, r5
601020b0:	db8c      	blt	60101fcc <QuickSort+0xdc>
601020b2:	9b0c      	ldr	r3, [sp, #48]
601020b4:	2b00      	cmp	r3, #0
601020b6:	dd00      	ble	601020ba <QuickSort+0x1ca>
601020b8:	e77d      	b	60101fb6 <QuickSort+0xc6>
601020ba:	9800      	ldr	r0, [sp, #0]
601020bc:	4b12      	ldr	r3, [pc, #72]	(60102108 <PROGRAM+0x1f60>)
601020be:	f8a5f000 	bl	6010220c <PROGRAM+0x2064>
601020c2:	9801      	ldr	r0, [sp, #4]
601020c4:	4b10      	ldr	r3, [pc, #64]	(60102108 <PROGRAM+0x1f60>)
601020c6:	f8a1f000 	bl	6010220c <PROGRAM+0x2064>
601020ca:	9802      	ldr	r0, [sp, #8]
601020cc:	4b0e      	ldr	r3, [pc, #56]	(60102108 <PROGRAM+0x1f60>)
601020ce:	f89df000 	bl	6010220c <PROGRAM+0x2064>
601020d2:	9803      	ldr	r0, [sp, #12]
601020d4:	4b0c      	ldr	r3, [pc, #48]	(60102108 <PROGRAM+0x1f60>)
601020d6:	f899f000 	bl	6010220c <PROGRAM+0x2064>
601020da:	9804      	ldr	r0, [sp, #16]
601020dc:	4b0a      	ldr	r3, [pc, #40]	(60102108 <PROGRAM+0x1f60>)
601020de:	f895f000 	bl	6010220c <PROGRAM+0x2064>
601020e2:	4b05      	ldr	r3, [pc, #20]	(601020f8 <PROGRAM+0x1f50>)
601020e4:	681b      	ldr	r3, [r3, #0]
601020e6:	2b00      	cmp	r3, #0
601020e8:	d101      	bne	601020ee <QuickSort+0x1fe>
601020ea:	2001      	mov	r0, #1
601020ec:	e000      	b	601020f0 <QuickSort+0x200>
601020ee:	2000      	mov	r0, #0
601020f0:	b00d      	add	sp, #52
601020f2:	bcf0      	pop	{r4, r5, r6, r7}
601020f4:	bc02      	pop	{r1}
601020f6:	4708      	bx	r1
601020f8:	29c8      	cmp	r1, #200
601020fa:	6200      	str	r0, [r0, #32]
601020fc:	3c80      	sub	r4, #128
601020fe:	6010      	str	r0, [r2, #0]
60102100:	435d      	mul	r5, r3
60102102:	6010      	str	r0, [r2, #0]
60102104:	3cd8      	sub	r4, #216
60102106:	6010      	str	r0, [r2, #0]
60102108:	3c88      	sub	r4, #136
6010210a:	6010      	str	r0, [r2, #0]

6010210c <CreateIndexFile>:
6010210c:	b5f0      	push	{r4, r5, r6, r7, lr}
6010210e:	b085      	sub	sp, #20
60102110:	9300      	str	r3, [sp, #0]
60102112:	0409      	lsl	r1, r1, #16
60102114:	0412      	lsl	r2, r2, #16
60102116:	4c38      	ldr	r4, [pc, #224]	(601021f8 <PROGRAM+0x2050>)
60102118:	6903      	ldr	r3, [r0, #16]
6010211a:	0c09      	lsr	r1, r1, #16
6010211c:	0c12      	lsr	r2, r2, #16
6010211e:	2700      	mov	r7, #0
60102120:	1c06      	mov	r6, r0		(add r6, r0, #0)
60102122:	9102      	str	r1, [sp, #8]
60102124:	9201      	str	r2, [sp, #4]
60102126:	6027      	str	r7, [r4, #0]
60102128:	2b01      	cmp	r3, #1
6010212a:	d160      	bne	601021ee <CreateIndexFile+0xe2>
6010212c:	fac0f7ff 	bl	601016b0 <GetTotalRecords>
60102130:	9003      	str	r0, [sp, #12]
60102132:	2800      	cmp	r0, #0
60102134:	d102      	bne	6010213c <CreateIndexFile+0x30>
60102136:	2306      	mov	r3, #6
60102138:	6023      	str	r3, [r4, #0]
6010213a:	e059      	b	601021f0 <CreateIndexFile+0xe4>
6010213c:	9901      	ldr	r1, [sp, #4]
6010213e:	3104      	add	r1, #4
60102140:	0409      	lsl	r1, r1, #16
60102142:	1409      	asr	r1, r1, #16
60102144:	9800      	ldr	r0, [sp, #0]
60102146:	9a0a      	ldr	r2, [sp, #40]
60102148:	f9c8f7ff 	bl	601014dc <CreateDatabase>
6010214c:	2800      	cmp	r0, #0
6010214e:	d04e      	beq	601021ee <CreateIndexFile+0xe2>
60102150:	2350      	mov	r3, #80
60102152:	6023      	str	r3, [r4, #0]
60102154:	8830      	ldrh	r0, [r6, #0]
60102156:	0400      	lsl	r0, r0, #16
60102158:	1400      	asr	r0, r0, #16
6010215a:	3004      	add	r0, #4
6010215c:	4b27      	ldr	r3, [pc, #156]	(601021fc <PROGRAM+0x2054>)
6010215e:	f855f000 	bl	6010220c <PROGRAM+0x2064>
60102162:	1c05      	mov	r5, r0		(add r5, r0, #0)
60102164:	2800      	cmp	r0, #0
60102166:	d03b      	beq	601021e0 <CreateIndexFile+0xd4>
60102168:	6027      	str	r7, [r4, #0]
6010216a:	9704      	str	r7, [sp, #16]
6010216c:	e021      	b	601021b2 <CreateIndexFile+0xa6>
6010216e:	1c30      	mov	r0, r6		(add r0, r6, #0)
60102170:	faaef7ff 	bl	601016d0 <GotoRecord>
60102174:	2800      	cmp	r0, #0
60102176:	d020      	beq	601021ba <CreateIndexFile+0xae>
60102178:	1c30      	mov	r0, r6		(add r0, r6, #0)
6010217a:	1c29      	mov	r1, r5		(add r1, r5, #0)
6010217c:	fa62f7ff 	bl	60101644 <ReadCurrentRecord>
60102180:	2800      	cmp	r0, #0
60102182:	d01a      	beq	601021ba <CreateIndexFile+0xae>
60102184:	9b02      	ldr	r3, [sp, #8]
60102186:	041c      	lsl	r4, r3, #16
60102188:	9b01      	ldr	r3, [sp, #4]
6010218a:	0418      	lsl	r0, r3, #16
6010218c:	1424      	asr	r4, r4, #16
6010218e:	1400      	asr	r0, r0, #16
60102190:	1820      	add	r0, r4, r0
60102192:	a904      	add	r1, sp, #16
60102194:	2204      	mov	r2, #4
60102196:	1828      	add	r0, r5, r0
60102198:	4b19      	ldr	r3, [pc, #100]	(60102200 <PROGRAM+0x2058>)
6010219a:	f837f000 	bl	6010220c <PROGRAM+0x2064>
6010219e:	980a      	ldr	r0, [sp, #40]
601021a0:	1929      	add	r1, r5, r4
601021a2:	2202      	mov	r2, #2
601021a4:	fb84f7ff 	bl	601018b0 <WriteRecord>
601021a8:	2800      	cmp	r0, #0
601021aa:	d006      	beq	601021ba <CreateIndexFile+0xae>
601021ac:	9b04      	ldr	r3, [sp, #16]
601021ae:	3301      	add	r3, #1
601021b0:	9304      	str	r3, [sp, #16]
601021b2:	9904      	ldr	r1, [sp, #16]
601021b4:	9b03      	ldr	r3, [sp, #12]
601021b6:	4299      	cmp	r1, r3
601021b8:	dbd9      	blt	6010216e <CreateIndexFile+0x62>
601021ba:	4b12      	ldr	r3, [pc, #72]	(60102204 <PROGRAM+0x205c>)
601021bc:	1c28      	mov	r0, r5		(add r0, r5, #0)
601021be:	f825f000 	bl	6010220c <PROGRAM+0x2064>
601021c2:	4b0d      	ldr	r3, [pc, #52]	(601021f8 <PROGRAM+0x2050>)
601021c4:	681b      	ldr	r3, [r3, #0]
601021c6:	2b00      	cmp	r3, #0
601021c8:	d10a      	bne	601021e0 <CreateIndexFile+0xd4>
601021ca:	9b01      	ldr	r3, [sp, #4]
601021cc:	041a      	lsl	r2, r3, #16
601021ce:	1412      	asr	r2, r2, #16
601021d0:	980a      	ldr	r0, [sp, #40]
601021d2:	2100      	mov	r1, #0
601021d4:	fe8cf7ff 	bl	60101ef0 <QuickSort>
601021d8:	2800      	cmp	r0, #0
601021da:	d001      	beq	601021e0 <CreateIndexFile+0xd4>
601021dc:	2001      	mov	r0, #1
601021de:	e007      	b	601021f0 <CreateIndexFile+0xe4>
601021e0:	980a      	ldr	r0, [sp, #40]
601021e2:	f9a1f7ff 	bl	60101528 <CloseDatabase>
601021e6:	9800      	ldr	r0, [sp, #0]
601021e8:	4b07      	ldr	r3, [pc, #28]	(60102208 <PROGRAM+0x2060>)
601021ea:	f80ff000 	bl	6010220c <PROGRAM+0x2064>
601021ee:	2000      	mov	r0, #0
601021f0:	b005      	add	sp, #20
601021f2:	bcf0      	pop	{r4, r5, r6, r7}
601021f4:	bc02      	pop	{r1}
601021f6:	4708      	bx	r1
601021f8:	29c8      	cmp	r1, #200
601021fa:	6200      	str	r0, [r0, #32]
601021fc:	3c80      	sub	r4, #128
601021fe:	6010      	str	r0, [r2, #0]
60102200:	3ce0      	sub	r4, #224
60102202:	6010      	str	r0, [r2, #0]
60102204:	3c88      	sub	r4, #136
60102206:	6010      	str	r0, [r2, #0]
60102208:	3dd0      	sub	r5, #208
6010220a:	6010      	str	r0, [r2, #0]
6010220c:	4718      	bx	r3
6010220e:	4720      	bx	r4
60102210:	4728      	bx	r5
60102212:	4730      	bx	r6

60102214 <WaitForKey>:
60102214:	b530      	push	{r4, r5, lr}
60102216:	e002      	b	6010221e <WaitForKey+0xa>
60102218:	4b10      	ldr	r3, [pc, #64]	(6010225c <PROGRAM+0x20b4>)
6010221a:	fb36f000 	bl	6010288a <PROGRAM+0x26e2>
6010221e:	4b10      	ldr	r3, [pc, #64]	(60102260 <PROGRAM+0x20b8>)
60102220:	681b      	ldr	r3, [r3, #0]
60102222:	6858      	ldr	r0, [r3, #4]
60102224:	6843      	ldr	r3, [r0, #4]
60102226:	3b01      	sub	r3, #1
60102228:	6043      	str	r3, [r0, #4]
6010222a:	2b00      	cmp	r3, #0
6010222c:	da04      	bge	60102238 <WaitForKey+0x24>
6010222e:	4b0d      	ldr	r3, [pc, #52]	(60102264 <PROGRAM+0x20bc>)
60102230:	fb2bf000 	bl	6010288a <PROGRAM+0x26e2>
60102234:	1c05      	mov	r5, r0		(add r5, r0, #0)
60102236:	e003      	b	60102240 <WaitForKey+0x2c>
60102238:	6803      	ldr	r3, [r0, #0]
6010223a:	781d      	ldrb	r5, [r3, #0]
6010223c:	3301      	add	r3, #1
6010223e:	6003      	str	r3, [r0, #0]
60102240:	1c6b      	add	r3, r5, #1
60102242:	d0e9      	beq	60102218 <WaitForKey+0x4>
60102244:	2003      	mov	r0, #3
60102246:	2120      	mov	r1, #32
60102248:	4a07      	ldr	r2, [pc, #28]	(60102268 <PROGRAM+0x20c0>)
6010224a:	2300      	mov	r3, #0
6010224c:	4c07      	ldr	r4, [pc, #28]	(6010226c <PROGRAM+0x20c4>)
6010224e:	fb1df000 	bl	6010288c <PROGRAM+0x26e4>
60102252:	1c28      	mov	r0, r5		(add r0, r5, #0)
60102254:	bc30      	pop	{r4, r5}
60102256:	bc02      	pop	{r1}
60102258:	4708      	bx	r1
6010225a:	0000      	lsl	r0, r0, #0
6010225c:	35b0      	add	r5, #176
6010225e:	6010      	str	r0, [r2, #0]
60102260:	0414      	lsl	r4, r2, #16
60102262:	6200      	str	r0, [r0, #32]
60102264:	38d8      	sub	r0, #216
60102266:	6010      	str	r0, [r2, #0]
60102268:	0dac      	lsr	r4, r5, #22
6010226a:	0000      	lsl	r0, r0, #0
6010226c:	36a0      	add	r6, #160
6010226e:	6010      	str	r0, [r2, #0]

60102270 <check_key_input>:
60102270:	b510      	push	{r4, lr}
60102272:	b081      	sub	sp, #4
60102274:	1c04      	mov	r4, r0		(add r4, r0, #0)
60102276:	1c13      	mov	r3, r2		(add r3, r2, #0)
60102278:	1c08      	mov	r0, r1		(add r0, r1, #0)
6010227a:	2100      	mov	r1, #0
6010227c:	9200      	str	r2, [sp, #0]
6010227e:	e008      	b	60102292 <check_key_input+0x22>
60102280:	1d1a      	add	r2, r3, #4
60102282:	681b      	ldr	r3, [r3, #0]
60102284:	42a3      	cmp	r3, r4
60102286:	d102      	bne	6010228e <check_key_input+0x1e>
60102288:	2000      	mov	r0, #0
6010228a:	9200      	str	r2, [sp, #0]
6010228c:	e006      	b	6010229c <check_key_input+0x2c>
6010228e:	3101      	add	r1, #1
60102290:	1c13      	mov	r3, r2		(add r3, r2, #0)
60102292:	4281      	cmp	r1, r0
60102294:	dbf4      	blt	60102280 <check_key_input+0x10>
60102296:	2001      	mov	r0, #1
60102298:	9300      	str	r3, [sp, #0]
6010229a:	4240      	neg	r0, r0
6010229c:	b001      	add	sp, #4
6010229e:	bc10      	pop	{r4}
601022a0:	bc02      	pop	{r1}
601022a2:	4708      	bx	r1

601022a4 <WaitForKeys>:
601022a4:	b40f      	push	{r0, r1, r2, r3}
601022a6:	b530      	push	{r4, r5, lr}
601022a8:	b081      	sub	sp, #4
601022aa:	9d04      	ldr	r5, [sp, #16]
601022ac:	2d00      	cmp	r5, #0
601022ae:	dc02      	bgt	601022b6 <WaitForKeys+0x12>
601022b0:	2401      	mov	r4, #1
601022b2:	4264      	neg	r4, r4
601022b4:	e00d      	b	601022d2 <WaitForKeys+0x2e>
601022b6:	ab05      	add	r3, sp, #20
601022b8:	9300      	str	r3, [sp, #0]
601022ba:	4b09      	ldr	r3, [pc, #36]	(601022e0 <PROGRAM+0x2138>)
601022bc:	fae5f000 	bl	6010288a <PROGRAM+0x26e2>
601022c0:	ffa8f7ff 	bl	60102214 <WaitForKey>
601022c4:	9a00      	ldr	r2, [sp, #0]
601022c6:	1c29      	mov	r1, r5		(add r1, r5, #0)
601022c8:	1c04      	mov	r4, r0		(add r4, r0, #0)
601022ca:	ffd1f7ff 	bl	60102270 <check_key_input>
601022ce:	2800      	cmp	r0, #0
601022d0:	d1f6      	bne	601022c0 <WaitForKeys+0x1c>
601022d2:	1c20      	mov	r0, r4		(add r0, r4, #0)
601022d4:	b001      	add	sp, #4
601022d6:	bc30      	pop	{r4, r5}
601022d8:	bc08      	pop	{r3}
601022da:	b004      	add	sp, #16
601022dc:	4718      	bx	r3
601022de:	0000      	lsl	r0, r0, #0
601022e0:	3618      	add	r6, #24
601022e2:	6010      	str	r0, [r2, #0]

601022e4 <ScanBarcodeSymbol>:
601022e4:	b5f0      	push	{r4, r5, r6, r7, lr}
601022e6:	b088      	sub	sp, #32
601022e8:	9102      	str	r1, [sp, #8]
601022ea:	1c1f      	mov	r7, r3		(add r7, r3, #0)
601022ec:	4b34      	ldr	r3, [pc, #208]	(601023c0 <PROGRAM+0x2218>)
601022ee:	1c15      	mov	r5, r2		(add r5, r2, #0)
601022f0:	aa03      	add	r2, sp, #12
601022f2:	1c06      	mov	r6, r0		(add r6, r0, #0)
601022f4:	cb13      	ldmia	r3!,{r0, r1, r4}
601022f6:	c213      	stmia	r2!,{r0, r1, r4}
601022f8:	cb03      	ldmia	r3!,{r0, r1}
601022fa:	c203      	stmia	r2!,{r0, r1}
601022fc:	2300      	mov	r3, #0
601022fe:	603b      	str	r3, [r7, #0]
60102300:	4b30      	ldr	r3, [pc, #192]	(601023c4 <PROGRAM+0x221c>)
60102302:	fac2f000 	bl	6010288a <PROGRAM+0x26e2>
60102306:	9b02      	ldr	r3, [sp, #8]
60102308:	2196      	mov	r1, #150
6010230a:	9306      	str	r3, [sp, #24]
6010230c:	9507      	str	r5, [sp, #28]
6010230e:	9603      	str	r6, [sp, #12]
60102310:	2003      	mov	r0, #3
60102312:	0049      	lsl	r1, r1, #1
60102314:	4b2c      	ldr	r3, [pc, #176]	(601023c8 <PROGRAM+0x2220>)
60102316:	fab8f000 	bl	6010288a <PROGRAM+0x26e2>
6010231a:	e02f      	b	6010237c <ScanBarcodeSymbol+0x98>
6010231c:	4b2b      	ldr	r3, [pc, #172]	(601023cc <PROGRAM+0x2224>)
6010231e:	fab4f000 	bl	6010288a <PROGRAM+0x26e2>
60102322:	2800      	cmp	r0, #0
60102324:	d027      	beq	60102376 <ScanBarcodeSymbol+0x92>
60102326:	4b2a      	ldr	r3, [pc, #168]	(601023d0 <PROGRAM+0x2228>)
60102328:	681b      	ldr	r3, [r3, #0]
6010232a:	6858      	ldr	r0, [r3, #4]
6010232c:	6843      	ldr	r3, [r0, #4]
6010232e:	3b01      	sub	r3, #1
60102330:	6043      	str	r3, [r0, #4]
60102332:	2b00      	cmp	r3, #0
60102334:	da04      	bge	60102340 <ScanBarcodeSymbol+0x5c>
60102336:	4b27      	ldr	r3, [pc, #156]	(601023d4 <PROGRAM+0x222c>)
60102338:	faa7f000 	bl	6010288a <PROGRAM+0x26e2>
6010233c:	1c02      	mov	r2, r0		(add r2, r0, #0)
6010233e:	e003      	b	60102348 <ScanBarcodeSymbol+0x64>
60102340:	6803      	ldr	r3, [r0, #0]
60102342:	781a      	ldrb	r2, [r3, #0]
60102344:	3301      	add	r3, #1
60102346:	6003      	str	r3, [r0, #0]
60102348:	2a80      	cmp	r2, #128
6010234a:	d00e      	beq	6010236a <ScanBarcodeSymbol+0x86>
6010234c:	4b20      	ldr	r3, [pc, #128]	(601023d0 <PROGRAM+0x2228>)
6010234e:	681b      	ldr	r3, [r3, #0]
60102350:	1c10      	mov	r0, r2		(add r0, r2, #0)
60102352:	6859      	ldr	r1, [r3, #4]
60102354:	4b20      	ldr	r3, [pc, #128]	(601023d8 <PROGRAM+0x2230>)
60102356:	fa98f000 	bl	6010288a <PROGRAM+0x26e2>
6010235a:	2000      	mov	r0, #0
6010235c:	2100      	mov	r1, #0
6010235e:	4b1a      	ldr	r3, [pc, #104]	(601023c8 <PROGRAM+0x2220>)
60102360:	fa93f000 	bl	6010288a <PROGRAM+0x26e2>
60102364:	2001      	mov	r0, #1
60102366:	4240      	neg	r0, r0
60102368:	e025      	b	601023b6 <ScanBarcodeSymbol+0xd2>
6010236a:	2196      	mov	r1, #150
6010236c:	2003      	mov	r0, #3
6010236e:	0049      	lsl	r1, r1, #1
60102370:	4b15      	ldr	r3, [pc, #84]	(601023c8 <PROGRAM+0x2220>)
60102372:	fa8af000 	bl	6010288a <PROGRAM+0x26e2>
60102376:	4b19      	ldr	r3, [pc, #100]	(601023dc <PROGRAM+0x2234>)
60102378:	fa87f000 	bl	6010288a <PROGRAM+0x26e2>
6010237c:	a803      	add	r0, sp, #12
6010237e:	4b18      	ldr	r3, [pc, #96]	(601023e0 <PROGRAM+0x2238>)
60102380:	fa83f000 	bl	6010288a <PROGRAM+0x26e2>
60102384:	1c04      	mov	r4, r0		(add r4, r0, #0)
60102386:	2800      	cmp	r0, #0
60102388:	d1c8      	bne	6010231c <ScanBarcodeSymbol+0x38>
6010238a:	9b05      	ldr	r3, [sp, #20]
6010238c:	2002      	mov	r0, #2
6010238e:	603b      	str	r3, [r7, #0]
60102390:	210a      	mov	r1, #10
60102392:	4b14      	ldr	r3, [pc, #80]	(601023e4 <PROGRAM+0x223c>)
60102394:	fa79f000 	bl	6010288a <PROGRAM+0x26e2>
60102398:	2000      	mov	r0, #0
6010239a:	2100      	mov	r1, #0
6010239c:	4b0a      	ldr	r3, [pc, #40]	(601023c8 <PROGRAM+0x2220>)
6010239e:	fa74f000 	bl	6010288a <PROGRAM+0x26e2>
601023a2:	4a11      	ldr	r2, [pc, #68]	(601023e8 <PROGRAM+0x2240>)
601023a4:	9401      	str	r4, [sp, #4]
601023a6:	2005      	mov	r0, #5
601023a8:	9200      	str	r2, [sp, #0]
601023aa:	2120      	mov	r1, #32
601023ac:	4b0f      	ldr	r3, [pc, #60]	(601023ec <PROGRAM+0x2244>)
601023ae:	4c10      	ldr	r4, [pc, #64]	(601023f0 <PROGRAM+0x2248>)
601023b0:	fa6cf000 	bl	6010288c <PROGRAM+0x26e4>
601023b4:	2000      	mov	r0, #0
601023b6:	b008      	add	sp, #32
601023b8:	bcf0      	pop	{r4, r5, r6, r7}
601023ba:	bc02      	pop	{r1}
601023bc:	4708      	bx	r1
601023be:	0000      	lsl	r0, r0, #0
601023c0:	6c54      	ldr	r4, [r2, #68]
601023c2:	6010      	str	r0, [r2, #0]
601023c4:	3618      	add	r6, #24
601023c6:	6010      	str	r0, [r2, #0]
601023c8:	3640      	add	r6, #64
601023ca:	6010      	str	r0, [r2, #0]
601023cc:	35c8      	add	r5, #200
601023ce:	6010      	str	r0, [r2, #0]
601023d0:	0414      	lsl	r4, r2, #16
601023d2:	6200      	str	r0, [r0, #32]
601023d4:	38d8      	sub	r0, #216
601023d6:	6010      	str	r0, [r2, #0]
601023d8:	4140      	adc	r0, r0
601023da:	6010      	str	r0, [r2, #0]
601023dc:	35b0      	add	r5, #176
601023de:	6010      	str	r0, [r2, #0]
601023e0:	3610      	add	r6, #16
601023e2:	6010      	str	r0, [r2, #0]
601023e4:	35a0      	add	r5, #160
601023e6:	6010      	str	r0, [r2, #0]
601023e8:	0dac      	lsr	r4, r5, #22
601023ea:	0000      	lsl	r0, r0, #0
601023ec:	09c4      	lsr	r4, r0, #7
601023ee:	0000      	lsl	r0, r0, #0
601023f0:	36a0      	add	r6, #160
601023f2:	6010      	str	r0, [r2, #0]

601023f4 <ScanBarcode>:
601023f4:	b500      	push	{lr}
601023f6:	b081      	sub	sp, #4
601023f8:	2300      	mov	r3, #0
601023fa:	9300      	str	r3, [sp, #0]
601023fc:	466b      	mov	r3, sp
601023fe:	ff71f7ff 	bl	601022e4 <ScanBarcodeSymbol>
60102402:	b001      	add	sp, #4
60102404:	bc02      	pop	{r1}
60102406:	4708      	bx	r1

60102408 <remove_key_from_buffer>:
60102408:	b510      	push	{r4, lr}
6010240a:	7803      	ldrb	r3, [r0, #0]
6010240c:	1c04      	mov	r4, r0		(add r4, r0, #0)
6010240e:	2b00      	cmp	r3, #0
60102410:	d006      	beq	60102420 <remove_key_from_buffer+0x18>
60102412:	4b05      	ldr	r3, [pc, #20]	(60102428 <PROGRAM+0x2280>)
60102414:	fa39f000 	bl	6010288a <PROGRAM+0x26e2>
60102418:	1820      	add	r0, r4, r0
6010241a:	3801      	sub	r0, #1
6010241c:	2300      	mov	r3, #0
6010241e:	7003      	strb	r3, [r0, #0]
60102420:	bc10      	pop	{r4}
60102422:	bc01      	pop	{r0}
60102424:	4700      	bx	r0
60102426:	0000      	lsl	r0, r0, #0
60102428:	3f68      	sub	r7, #104
6010242a:	6010      	str	r0, [r2, #0]

6010242c <display_input>:
6010242c:	b5f0      	push	{r4, r5, r6, r7, lr}
6010242e:	b081      	sub	sp, #4
60102430:	1c04      	mov	r4, r0		(add r4, r0, #0)
60102432:	1c0f      	mov	r7, r1		(add r7, r1, #0)
60102434:	9200      	str	r2, [sp, #0]
60102436:	1c1d      	mov	r5, r3		(add r5, r3, #0)
60102438:	2900      	cmp	r1, #0
6010243a:	db2b      	blt	60102494 <display_input+0x68>
6010243c:	2a00      	cmp	r2, #0
6010243e:	db29      	blt	60102494 <display_input+0x68>
60102440:	4b16      	ldr	r3, [pc, #88]	(6010249c <PROGRAM+0x22f4>)
60102442:	fa22f000 	bl	6010288a <PROGRAM+0x26e2>
60102446:	4b16      	ldr	r3, [pc, #88]	(601024a0 <PROGRAM+0x22f8>)
60102448:	1c06      	mov	r6, r0		(add r6, r0, #0)
6010244a:	9900      	ldr	r1, [sp, #0]
6010244c:	1c38      	mov	r0, r7		(add r0, r7, #0)
6010244e:	fa1cf000 	bl	6010288a <PROGRAM+0x26e2>
60102452:	9b06      	ldr	r3, [sp, #24]
60102454:	429e      	cmp	r6, r3
60102456:	da0a      	bge	6010246e <display_input+0x42>
60102458:	1e6a      	sub	r2, r5, #1
6010245a:	42ae      	cmp	r6, r5
6010245c:	da01      	bge	60102462 <display_input+0x36>
6010245e:	2300      	mov	r3, #0
60102460:	e001      	b	60102466 <display_input+0x3a>
60102462:	1b73      	sub	r3, r6, r5
60102464:	3301      	add	r3, #1
60102466:	480f      	ldr	r0, [pc, #60]	(601024a4 <PROGRAM+0x22fc>)
60102468:	18e3      	add	r3, r4, r3
6010246a:	1c11      	mov	r1, r2		(add r1, r2, #0)
6010246c:	e004      	b	60102478 <display_input+0x4c>
6010246e:	1b73      	sub	r3, r6, r5
60102470:	480d      	ldr	r0, [pc, #52]	(601024a8 <PROGRAM+0x2300>)
60102472:	18e3      	add	r3, r4, r3
60102474:	1c29      	mov	r1, r5		(add r1, r5, #0)
60102476:	1c2a      	mov	r2, r5		(add r2, r5, #0)
60102478:	4c0c      	ldr	r4, [pc, #48]	(601024ac <PROGRAM+0x2304>)
6010247a:	fa07f000 	bl	6010288c <PROGRAM+0x26e4>
6010247e:	42ae      	cmp	r6, r5
60102480:	db01      	blt	60102486 <display_input+0x5a>
60102482:	1c29      	mov	r1, r5		(add r1, r5, #0)
60102484:	e000      	b	60102488 <display_input+0x5c>
60102486:	1c71      	add	r1, r6, #1
60102488:	1878      	add	r0, r7, r1
6010248a:	3801      	sub	r0, #1
6010248c:	9900      	ldr	r1, [sp, #0]
6010248e:	4b04      	ldr	r3, [pc, #16]	(601024a0 <PROGRAM+0x22f8>)
60102490:	f9fbf000 	bl	6010288a <PROGRAM+0x26e2>
60102494:	b001      	add	sp, #4
60102496:	bcf0      	pop	{r4, r5, r6, r7}
60102498:	bc01      	pop	{r0}
6010249a:	4700      	bx	r0
6010249c:	3f68      	sub	r7, #104
6010249e:	6010      	str	r0, [r2, #0]
601024a0:	35a8      	add	r5, #168
601024a2:	6010      	str	r0, [r2, #0]
601024a4:	79bc      	ldrb	r4, [r7, #6]
601024a6:	6010      	str	r0, [r2, #0]
601024a8:	719c      	strb	r4, [r3, #6]
601024aa:	6010      	str	r0, [r2, #0]
601024ac:	3d70      	sub	r5, #112
601024ae:	6010      	str	r0, [r2, #0]

601024b0 <KeyboardInput>:
601024b0:	b5f0      	push	{r4, r5, r6, r7, lr}
601024b2:	b084      	sub	sp, #16
601024b4:	1c17      	mov	r7, r2		(add r7, r2, #0)
601024b6:	9a0c      	ldr	r2, [sp, #48]
601024b8:	1c05      	mov	r5, r0		(add r5, r0, #0)
601024ba:	9102      	str	r1, [sp, #8]
601024bc:	9301      	str	r3, [sp, #4]
601024be:	2a00      	cmp	r2, #0
601024c0:	dd74      	ble	601025ac <KeyboardInput+0xfc>
601024c2:	9b0b      	ldr	r3, [sp, #44]
601024c4:	42bb      	cmp	r3, r7
601024c6:	dd00      	ble	601024ca <KeyboardInput+0x1a>
601024c8:	970b      	str	r7, [sp, #44]
601024ca:	1c28      	mov	r0, r5		(add r0, r5, #0)
601024cc:	9b0b      	ldr	r3, [sp, #44]
601024ce:	9909      	ldr	r1, [sp, #36]
601024d0:	9a0a      	ldr	r2, [sp, #40]
601024d2:	9700      	str	r7, [sp, #0]
601024d4:	ffaaf7ff 	bl	6010242c <display_input>
601024d8:	2001      	mov	r0, #1
601024da:	4b38      	ldr	r3, [pc, #224]	(601025bc <PROGRAM+0x2414>)
601024dc:	f9d5f000 	bl	6010288a <PROGRAM+0x26e2>
601024e0:	ab0d      	add	r3, sp, #52
601024e2:	9303      	str	r3, [sp, #12]
601024e4:	fe96f7ff 	bl	60102214 <WaitForKey>
601024e8:	1c04      	mov	r4, r0		(add r4, r0, #0)
601024ea:	2883      	cmp	r0, #131
601024ec:	d107      	bne	601024fe <KeyboardInput+0x4e>
601024ee:	4b34      	ldr	r3, [pc, #208]	(601025c0 <PROGRAM+0x2418>)
601024f0:	1c28      	mov	r0, r5		(add r0, r5, #0)
601024f2:	f9caf000 	bl	6010288a <PROGRAM+0x26e2>
601024f6:	9a02      	ldr	r2, [sp, #8]
601024f8:	4290      	cmp	r0, r2
601024fa:	d3f1      	bcc	601024e0 <KeyboardInput+0x30>
601024fc:	e002      	b	60102504 <KeyboardInput+0x54>
601024fe:	2893      	cmp	r0, #147
60102500:	d100      	bne	60102504 <KeyboardInput+0x54>
60102502:	242f      	mov	r4, #47
60102504:	9a03      	ldr	r2, [sp, #12]
60102506:	1c20      	mov	r0, r4		(add r0, r4, #0)
60102508:	990c      	ldr	r1, [sp, #48]
6010250a:	feb1f7ff 	bl	60102270 <check_key_input>
6010250e:	2800      	cmp	r0, #0
60102510:	d103      	bne	6010251a <KeyboardInput+0x6a>
60102512:	4b2a      	ldr	r3, [pc, #168]	(601025bc <PROGRAM+0x2414>)
60102514:	f9b9f000 	bl	6010288a <PROGRAM+0x26e2>
60102518:	e04a      	b	601025b0 <KeyboardInput+0x100>
6010251a:	2c85      	cmp	r4, #133
6010251c:	d103      	bne	60102526 <KeyboardInput+0x76>
6010251e:	1c28      	mov	r0, r5		(add r0, r5, #0)
60102520:	ff72f7ff 	bl	60102408 <remove_key_from_buffer>
60102524:	e03a      	b	6010259c <KeyboardInput+0xec>
60102526:	4b26      	ldr	r3, [pc, #152]	(601025c0 <PROGRAM+0x2418>)
60102528:	1c28      	mov	r0, r5		(add r0, r5, #0)
6010252a:	f9aef000 	bl	6010288a <PROGRAM+0x26e2>
6010252e:	1c06      	mov	r6, r0		(add r6, r0, #0)
60102530:	42b8      	cmp	r0, r7
60102532:	da33      	bge	6010259c <KeyboardInput+0xec>
60102534:	9b01      	ldr	r3, [sp, #4]
60102536:	07db      	lsl	r3, r3, #31
60102538:	d50c      	bpl	60102554 <KeyboardInput+0xa4>
6010253a:	4b22      	ldr	r3, [pc, #136]	(601025c4 <PROGRAM+0x241c>)
6010253c:	5ce3      	ldrb	r3, [r4, r3]
6010253e:	075a      	lsl	r2, r3, #29
60102540:	d428      	bmi	60102594 <KeyboardInput+0xe4>
60102542:	4b21      	ldr	r3, [pc, #132]	(601025c8 <PROGRAM+0x2420>)
60102544:	1c28      	mov	r0, r5		(add r0, r5, #0)
60102546:	212e      	mov	r1, #46
60102548:	f99ff000 	bl	6010288a <PROGRAM+0x26e2>
6010254c:	2800      	cmp	r0, #0
6010254e:	d101      	bne	60102554 <KeyboardInput+0xa4>
60102550:	2c2e      	cmp	r4, #46
60102552:	d01f      	beq	60102594 <KeyboardInput+0xe4>
60102554:	9b01      	ldr	r3, [sp, #4]
60102556:	079b      	lsl	r3, r3, #30
60102558:	d503      	bpl	60102562 <KeyboardInput+0xb2>
6010255a:	4b1a      	ldr	r3, [pc, #104]	(601025c4 <PROGRAM+0x241c>)
6010255c:	5ce3      	ldrb	r3, [r4, r3]
6010255e:	075a      	lsl	r2, r3, #29
60102560:	d418      	bmi	60102594 <KeyboardInput+0xe4>
60102562:	9b01      	ldr	r3, [sp, #4]
60102564:	075b      	lsl	r3, r3, #29
60102566:	d506      	bpl	60102576 <KeyboardInput+0xc6>
60102568:	4b16      	ldr	r3, [pc, #88]	(601025c4 <PROGRAM+0x241c>)
6010256a:	5ce2      	ldrb	r2, [r4, r3]
6010256c:	2303      	mov	r3, #3
6010256e:	421a      	tst	r2, r3
60102570:	d110      	bne	60102594 <KeyboardInput+0xe4>
60102572:	2c20      	cmp	r4, #32
60102574:	d00e      	beq	60102594 <KeyboardInput+0xe4>
60102576:	9a01      	ldr	r2, [sp, #4]
60102578:	0712      	lsl	r2, r2, #28
6010257a:	d503      	bpl	60102584 <KeyboardInput+0xd4>
6010257c:	2e00      	cmp	r6, #0
6010257e:	d101      	bne	60102584 <KeyboardInput+0xd4>
60102580:	2c2d      	cmp	r4, #45
60102582:	d007      	beq	60102594 <KeyboardInput+0xe4>
60102584:	9b01      	ldr	r3, [sp, #4]
60102586:	06db      	lsl	r3, r3, #27
60102588:	d508      	bpl	6010259c <KeyboardInput+0xec>
6010258a:	4b0e      	ldr	r3, [pc, #56]	(601025c4 <PROGRAM+0x241c>)
6010258c:	5ce2      	ldrb	r2, [r4, r3]
6010258e:	2397      	mov	r3, #151
60102590:	421a      	tst	r2, r3
60102592:	d003      	beq	6010259c <KeyboardInput+0xec>
60102594:	19aa      	add	r2, r5, r6
60102596:	2300      	mov	r3, #0
60102598:	5574      	strb	r4, [r6, r5]
6010259a:	7053      	strb	r3, [r2, #1]
6010259c:	1c28      	mov	r0, r5		(add r0, r5, #0)
6010259e:	9909      	ldr	r1, [sp, #36]
601025a0:	9a0a      	ldr	r2, [sp, #40]
601025a2:	9b0b      	ldr	r3, [sp, #44]
601025a4:	9700      	str	r7, [sp, #0]
601025a6:	ff41f7ff 	bl	6010242c <display_input>
601025aa:	e799      	b	601024e0 <KeyboardInput+0x30>
601025ac:	2401      	mov	r4, #1
601025ae:	4264      	neg	r4, r4
601025b0:	1c20      	mov	r0, r4		(add r0, r4, #0)
601025b2:	b004      	add	sp, #16
601025b4:	bcf0      	pop	{r4, r5, r6, r7}
601025b6:	bc02      	pop	{r1}
601025b8:	4708      	bx	r1
601025ba:	0000      	lsl	r0, r0, #0
601025bc:	3510      	add	r5, #16
601025be:	6010      	str	r0, [r2, #0]
601025c0:	3f68      	sub	r7, #104
601025c2:	6010      	str	r0, [r2, #0]
601025c4:	6fa5      	ldr	r5, [r4, #120]
601025c6:	6010      	str	r0, [r2, #0]
601025c8:	3f18      	sub	r7, #24
601025ca:	6010      	str	r0, [r2, #0]

601025cc <ScanOrKeyboardInput>:
601025cc:	b5f0      	push	{r4, r5, r6, r7, lr}
601025ce:	b08b      	sub	sp, #44
601025d0:	910a      	str	r1, [sp, #40]
601025d2:	9309      	str	r3, [sp, #36]
601025d4:	9e10      	ldr	r6, [sp, #64]
601025d6:	9f11      	ldr	r7, [sp, #68]
601025d8:	1c04      	mov	r4, r0		(add r4, r0, #0)
601025da:	1c15      	mov	r5, r2		(add r5, r2, #0)
601025dc:	2300      	mov	r3, #0
601025de:	7023      	strb	r3, [r4, #0]
601025e0:	1c20      	mov	r0, r4		(add r0, r4, #0)
601025e2:	1c31      	mov	r1, r6		(add r1, r6, #0)
601025e4:	1c3a      	mov	r2, r7		(add r2, r7, #0)
601025e6:	9b12      	ldr	r3, [sp, #72]
601025e8:	9500      	str	r5, [sp, #0]
601025ea:	ff1ff7ff 	bl	6010242c <display_input>
601025ee:	1c20      	mov	r0, r4		(add r0, r4, #0)
601025f0:	990a      	ldr	r1, [sp, #40]
601025f2:	1c2a      	mov	r2, r5		(add r2, r5, #0)
601025f4:	fefef7ff 	bl	601023f4 <ScanBarcode>
601025f8:	2800      	cmp	r0, #0
601025fa:	d109      	bne	60102610 <ScanOrKeyboardInput+0x44>
601025fc:	1c20      	mov	r0, r4		(add r0, r4, #0)
601025fe:	1c31      	mov	r1, r6		(add r1, r6, #0)
60102600:	1c3a      	mov	r2, r7		(add r2, r7, #0)
60102602:	9b12      	ldr	r3, [sp, #72]
60102604:	9500      	str	r5, [sp, #0]
60102606:	ff11f7ff 	bl	6010242c <display_input>
6010260a:	2080      	mov	r0, #128
6010260c:	0100      	lsl	r0, r0, #4
6010260e:	e025      	b	6010265c <ScanOrKeyboardInput+0x90>
60102610:	9b12      	ldr	r3, [sp, #72]
60102612:	9302      	str	r3, [sp, #8]
60102614:	2305      	mov	r3, #5
60102616:	9303      	str	r3, [sp, #12]
60102618:	2380      	mov	r3, #128
6010261a:	9304      	str	r3, [sp, #16]
6010261c:	2383      	mov	r3, #131
6010261e:	9305      	str	r3, [sp, #20]
60102620:	2390      	mov	r3, #144
60102622:	9306      	str	r3, [sp, #24]
60102624:	2393      	mov	r3, #147
60102626:	9307      	str	r3, [sp, #28]
60102628:	2384      	mov	r3, #132
6010262a:	9308      	str	r3, [sp, #32]
6010262c:	1c20      	mov	r0, r4		(add r0, r4, #0)
6010262e:	990a      	ldr	r1, [sp, #40]
60102630:	1c2a      	mov	r2, r5		(add r2, r5, #0)
60102632:	9b09      	ldr	r3, [sp, #36]
60102634:	9600      	str	r6, [sp, #0]
60102636:	9701      	str	r7, [sp, #4]
60102638:	ff3af7ff 	bl	601024b0 <KeyboardInput>
6010263c:	2893      	cmp	r0, #147
6010263e:	d101      	bne	60102644 <ScanOrKeyboardInput+0x78>
60102640:	202f      	mov	r0, #47
60102642:	e00b      	b	6010265c <ScanOrKeyboardInput+0x90>
60102644:	2883      	cmp	r0, #131
60102646:	d003      	beq	60102650 <ScanOrKeyboardInput+0x84>
60102648:	2884      	cmp	r0, #132
6010264a:	d004      	beq	60102656 <ScanOrKeyboardInput+0x8a>
6010264c:	2880      	cmp	r0, #128
6010264e:	d105      	bne	6010265c <ScanOrKeyboardInput+0x90>
60102650:	2080      	mov	r0, #128
60102652:	00c0      	lsl	r0, r0, #3
60102654:	e002      	b	6010265c <ScanOrKeyboardInput+0x90>
60102656:	7823      	ldrb	r3, [r4, #0]
60102658:	2b00      	cmp	r3, #0
6010265a:	d1bf      	bne	601025dc <ScanOrKeyboardInput+0x10>
6010265c:	b00b      	add	sp, #44
6010265e:	bcf0      	pop	{r4, r5, r6, r7}
60102660:	bc02      	pop	{r1}
60102662:	4708      	bx	r1

60102664 <ScanOrKeyboardInputSymbol>:
60102664:	b5f0      	push	{r4, r5, r6, r7, lr}
60102666:	b089      	sub	sp, #36
60102668:	9108      	str	r1, [sp, #32]
6010266a:	9307      	str	r3, [sp, #28]
6010266c:	9e0e      	ldr	r6, [sp, #56]
6010266e:	9f0f      	ldr	r7, [sp, #60]
60102670:	1c04      	mov	r4, r0		(add r4, r0, #0)
60102672:	1c15      	mov	r5, r2		(add r5, r2, #0)
60102674:	2300      	mov	r3, #0
60102676:	7023      	strb	r3, [r4, #0]
60102678:	1c20      	mov	r0, r4		(add r0, r4, #0)
6010267a:	1c31      	mov	r1, r6		(add r1, r6, #0)
6010267c:	1c3a      	mov	r2, r7		(add r2, r7, #0)
6010267e:	9b10      	ldr	r3, [sp, #64]
60102680:	9500      	str	r5, [sp, #0]
60102682:	fed3f7ff 	bl	6010242c <display_input>
60102686:	1c20      	mov	r0, r4		(add r0, r4, #0)
60102688:	9908      	ldr	r1, [sp, #32]
6010268a:	1c2a      	mov	r2, r5		(add r2, r5, #0)
6010268c:	9b11      	ldr	r3, [sp, #68]
6010268e:	fe29f7ff 	bl	601022e4 <ScanBarcodeSymbol>
60102692:	2800      	cmp	r0, #0
60102694:	d109      	bne	601026aa <ScanOrKeyboardInputSymbol+0x46>
60102696:	1c20      	mov	r0, r4		(add r0, r4, #0)
60102698:	1c31      	mov	r1, r6		(add r1, r6, #0)
6010269a:	1c3a      	mov	r2, r7		(add r2, r7, #0)
6010269c:	9b10      	ldr	r3, [sp, #64]
6010269e:	9500      	str	r5, [sp, #0]
601026a0:	fec4f7ff 	bl	6010242c <display_input>
601026a4:	2080      	mov	r0, #128
601026a6:	0100      	lsl	r0, r0, #4
601026a8:	e01d      	b	601026e6 <ScanOrKeyboardInputSymbol+0x82>
601026aa:	9b10      	ldr	r3, [sp, #64]
601026ac:	9302      	str	r3, [sp, #8]
601026ae:	2303      	mov	r3, #3
601026b0:	9303      	str	r3, [sp, #12]
601026b2:	2380      	mov	r3, #128
601026b4:	9304      	str	r3, [sp, #16]
601026b6:	2384      	mov	r3, #132
601026b8:	9305      	str	r3, [sp, #20]
601026ba:	2383      	mov	r3, #131
601026bc:	9306      	str	r3, [sp, #24]
601026be:	1c20      	mov	r0, r4		(add r0, r4, #0)
601026c0:	9908      	ldr	r1, [sp, #32]
601026c2:	1c2a      	mov	r2, r5		(add r2, r5, #0)
601026c4:	9b07      	ldr	r3, [sp, #28]
601026c6:	9600      	str	r6, [sp, #0]
601026c8:	9701      	str	r7, [sp, #4]
601026ca:	fef1f7ff 	bl	601024b0 <KeyboardInput>
601026ce:	2883      	cmp	r0, #131
601026d0:	d003      	beq	601026da <ScanOrKeyboardInputSymbol+0x76>
601026d2:	2884      	cmp	r0, #132
601026d4:	d004      	beq	601026e0 <ScanOrKeyboardInputSymbol+0x7c>
601026d6:	2880      	cmp	r0, #128
601026d8:	d105      	bne	601026e6 <ScanOrKeyboardInputSymbol+0x82>
601026da:	2080      	mov	r0, #128
601026dc:	00c0      	lsl	r0, r0, #3
601026de:	e002      	b	601026e6 <ScanOrKeyboardInputSymbol+0x82>
601026e0:	7823      	ldrb	r3, [r4, #0]
601026e2:	2b00      	cmp	r3, #0
601026e4:	d1c6      	bne	60102674 <ScanOrKeyboardInputSymbol+0x10>
601026e6:	b009      	add	sp, #36
601026e8:	bcf0      	pop	{r4, r5, r6, r7}
601026ea:	bc02      	pop	{r1}
601026ec:	4708      	bx	r1
	...

601026f0 <KeyboardNumeric>:
601026f0:	b5f0      	push	{r4, r5, r6, r7, lr}
601026f2:	b087      	sub	sp, #28
601026f4:	9202      	str	r2, [sp, #8]
601026f6:	9a0e      	ldr	r2, [sp, #56]
601026f8:	1c05      	mov	r5, r0		(add r5, r0, #0)
601026fa:	9103      	str	r1, [sp, #12]
601026fc:	9301      	str	r3, [sp, #4]
601026fe:	9e0d      	ldr	r6, [sp, #52]
60102700:	2a00      	cmp	r2, #0
60102702:	dc00      	bgt	60102706 <KeyboardNumeric+0x16>
60102704:	e0a4      	b	60102850 <KeyboardNumeric+0x160>
60102706:	9a02      	ldr	r2, [sp, #8]
60102708:	238a      	mov	r3, #138
6010270a:	439a      	bic	r2, r3
6010270c:	d000      	beq	60102710 <KeyboardNumeric+0x20>
6010270e:	e09f      	b	60102850 <KeyboardNumeric+0x160>
60102710:	9a02      	ldr	r2, [sp, #8]
60102712:	2380      	mov	r3, #128
60102714:	4013      	and	r3, r2
60102716:	d007      	beq	60102728 <KeyboardNumeric+0x38>
60102718:	2301      	mov	r3, #1
6010271a:	9304      	str	r3, [sp, #16]
6010271c:	e007      	b	6010272e <KeyboardNumeric+0x3e>
6010271e:	2000      	mov	r0, #0
60102720:	4b4f      	ldr	r3, [pc, #316]	(60102860 <PROGRAM+0x26b8>)
60102722:	f8b2f000 	bl	6010288a <PROGRAM+0x26e2>
60102726:	e095      	b	60102854 <KeyboardNumeric+0x164>
60102728:	2200      	mov	r2, #0
6010272a:	7003      	strb	r3, [r0, #0]
6010272c:	9204      	str	r2, [sp, #16]
6010272e:	2001      	mov	r0, #1
60102730:	4b4b      	ldr	r3, [pc, #300]	(60102860 <PROGRAM+0x26b8>)
60102732:	f8aaf000 	bl	6010288a <PROGRAM+0x26e2>
60102736:	e001      	b	6010273c <KeyboardNumeric+0x4c>
60102738:	2300      	mov	r3, #0
6010273a:	9304      	str	r3, [sp, #16]
6010273c:	9a01      	ldr	r2, [sp, #4]
6010273e:	ab0f      	add	r3, sp, #60
60102740:	9306      	str	r3, [sp, #24]
60102742:	2a00      	cmp	r2, #0
60102744:	db23      	blt	6010278e <KeyboardNumeric+0x9e>
60102746:	9b0c      	ldr	r3, [sp, #48]
60102748:	2b00      	cmp	r3, #0
6010274a:	db20      	blt	6010278e <KeyboardNumeric+0x9e>
6010274c:	4b45      	ldr	r3, [pc, #276]	(60102864 <PROGRAM+0x26bc>)
6010274e:	1c28      	mov	r0, r5		(add r0, r5, #0)
60102750:	f89bf000 	bl	6010288a <PROGRAM+0x26e2>
60102754:	990c      	ldr	r1, [sp, #48]
60102756:	1c04      	mov	r4, r0		(add r4, r0, #0)
60102758:	4b43      	ldr	r3, [pc, #268]	(60102868 <PROGRAM+0x26c0>)
6010275a:	9801      	ldr	r0, [sp, #4]
6010275c:	f895f000 	bl	6010288a <PROGRAM+0x26e2>
60102760:	9a01      	ldr	r2, [sp, #4]
60102762:	1992      	add	r2, r2, r6
60102764:	4841      	ldr	r0, [pc, #260]	(6010286c <PROGRAM+0x26c4>)
60102766:	4f42      	ldr	r7, [pc, #264]	(60102870 <PROGRAM+0x26c8>)
60102768:	9200      	str	r2, [sp, #0]
6010276a:	42b4      	cmp	r4, r6
6010276c:	dd04      	ble	60102778 <KeyboardNumeric+0x88>
6010276e:	1ba3      	sub	r3, r4, r6
60102770:	18eb      	add	r3, r5, r3
60102772:	1c31      	mov	r1, r6		(add r1, r6, #0)
60102774:	1c32      	mov	r2, r6		(add r2, r6, #0)
60102776:	e002      	b	6010277e <KeyboardNumeric+0x8e>
60102778:	1c31      	mov	r1, r6		(add r1, r6, #0)
6010277a:	1c32      	mov	r2, r6		(add r2, r6, #0)
6010277c:	1c2b      	mov	r3, r5		(add r3, r5, #0)
6010277e:	f886f000 	bl	6010288e <PROGRAM+0x26e6>
60102782:	9800      	ldr	r0, [sp, #0]
60102784:	990c      	ldr	r1, [sp, #48]
60102786:	3801      	sub	r0, #1
60102788:	4b37      	ldr	r3, [pc, #220]	(60102868 <PROGRAM+0x26c0>)
6010278a:	f87ef000 	bl	6010288a <PROGRAM+0x26e2>
6010278e:	fd41f7ff 	bl	60102214 <WaitForKey>
60102792:	9a06      	ldr	r2, [sp, #24]
60102794:	990e      	ldr	r1, [sp, #56]
60102796:	1c04      	mov	r4, r0		(add r4, r0, #0)
60102798:	fd6af7ff 	bl	60102270 <check_key_input>
6010279c:	2800      	cmp	r0, #0
6010279e:	d0be      	beq	6010271e <KeyboardNumeric+0x2e>
601027a0:	2c85      	cmp	r4, #133
601027a2:	d108      	bne	601027b6 <KeyboardNumeric+0xc6>
601027a4:	9b04      	ldr	r3, [sp, #16]
601027a6:	2b00      	cmp	r3, #0
601027a8:	d001      	beq	601027ae <KeyboardNumeric+0xbe>
601027aa:	2300      	mov	r3, #0
601027ac:	702b      	strb	r3, [r5, #0]
601027ae:	1c28      	mov	r0, r5		(add r0, r5, #0)
601027b0:	fe2af7ff 	bl	60102408 <remove_key_from_buffer>
601027b4:	e7c0      	b	60102738 <KeyboardNumeric+0x48>
601027b6:	9a02      	ldr	r2, [sp, #8]
601027b8:	0713      	lsl	r3, r2, #28
601027ba:	0fdb      	lsr	r3, r3, #31
601027bc:	9305      	str	r3, [sp, #20]
601027be:	2b00      	cmp	r3, #0
601027c0:	d004      	beq	601027cc <KeyboardNumeric+0xdc>
601027c2:	782b      	ldrb	r3, [r5, #0]
601027c4:	2b2d      	cmp	r3, #45
601027c6:	d101      	bne	601027cc <KeyboardNumeric+0xdc>
601027c8:	2701      	mov	r7, #1
601027ca:	e000      	b	601027ce <KeyboardNumeric+0xde>
601027cc:	2700      	mov	r7, #0
601027ce:	4b25      	ldr	r3, [pc, #148]	(60102864 <PROGRAM+0x26bc>)
601027d0:	1c28      	mov	r0, r5		(add r0, r5, #0)
601027d2:	f85af000 	bl	6010288a <PROGRAM+0x26e2>
601027d6:	9a03      	ldr	r2, [sp, #12]
601027d8:	19d3      	add	r3, r2, r7
601027da:	4298      	cmp	r0, r3
601027dc:	db04      	blt	601027e8 <KeyboardNumeric+0xf8>
601027de:	2c2d      	cmp	r4, #45
601027e0:	d002      	beq	601027e8 <KeyboardNumeric+0xf8>
601027e2:	9b04      	ldr	r3, [sp, #16]
601027e4:	2b00      	cmp	r3, #0
601027e6:	d0a7      	beq	60102738 <KeyboardNumeric+0x48>
601027e8:	9a02      	ldr	r2, [sp, #8]
601027ea:	0792      	lsl	r2, r2, #30
601027ec:	d503      	bpl	601027f6 <KeyboardNumeric+0x106>
601027ee:	4b21      	ldr	r3, [pc, #132]	(60102874 <PROGRAM+0x26cc>)
601027f0:	5ce3      	ldrb	r3, [r4, r3]
601027f2:	075a      	lsl	r2, r3, #29
601027f4:	d404      	bmi	60102800 <KeyboardNumeric+0x110>
601027f6:	9b05      	ldr	r3, [sp, #20]
601027f8:	2b00      	cmp	r3, #0
601027fa:	d09d      	beq	60102738 <KeyboardNumeric+0x48>
601027fc:	2c2d      	cmp	r4, #45
601027fe:	d19b      	bne	60102738 <KeyboardNumeric+0x48>
60102800:	9a04      	ldr	r2, [sp, #16]
60102802:	2a00      	cmp	r2, #0
60102804:	d003      	beq	6010280e <KeyboardNumeric+0x11e>
60102806:	2300      	mov	r3, #0
60102808:	702c      	strb	r4, [r5, #0]
6010280a:	706b      	strb	r3, [r5, #1]
6010280c:	e794      	b	60102738 <KeyboardNumeric+0x48>
6010280e:	2c2d      	cmp	r4, #45
60102810:	d118      	bne	60102844 <KeyboardNumeric+0x154>
60102812:	782b      	ldrb	r3, [r5, #0]
60102814:	4c18      	ldr	r4, [pc, #96]	(60102878 <PROGRAM+0x26d0>)
60102816:	4a19      	ldr	r2, [pc, #100]	(6010287c <PROGRAM+0x26d4>)
60102818:	2b2d      	cmp	r3, #45
6010281a:	d104      	bne	60102826 <KeyboardNumeric+0x136>
6010281c:	1c20      	mov	r0, r4		(add r0, r4, #0)
6010281e:	1c69      	add	r1, r5, #1
60102820:	f832f000 	bl	60102888 <PROGRAM+0x26e0>
60102824:	e008      	b	60102838 <KeyboardNumeric+0x148>
60102826:	4916      	ldr	r1, [pc, #88]	(60102880 <PROGRAM+0x26d8>)
60102828:	1c20      	mov	r0, r4		(add r0, r4, #0)
6010282a:	f82df000 	bl	60102888 <PROGRAM+0x26e0>
6010282e:	1c20      	mov	r0, r4		(add r0, r4, #0)
60102830:	1c29      	mov	r1, r5		(add r1, r5, #0)
60102832:	4b14      	ldr	r3, [pc, #80]	(60102884 <PROGRAM+0x26dc>)
60102834:	f829f000 	bl	6010288a <PROGRAM+0x26e2>
60102838:	1c28      	mov	r0, r5		(add r0, r5, #0)
6010283a:	490f      	ldr	r1, [pc, #60]	(60102878 <PROGRAM+0x26d0>)
6010283c:	4b0f      	ldr	r3, [pc, #60]	(6010287c <PROGRAM+0x26d4>)
6010283e:	f824f000 	bl	6010288a <PROGRAM+0x26e2>
60102842:	e779      	b	60102738 <KeyboardNumeric+0x48>
60102844:	5544      	strb	r4, [r0, r5]
60102846:	466a      	mov	r2, sp
60102848:	7c12      	ldrb	r2, [r2, #16]
6010284a:	182b      	add	r3, r5, r0
6010284c:	705a      	strb	r2, [r3, #1]
6010284e:	e773      	b	60102738 <KeyboardNumeric+0x48>
60102850:	2401      	mov	r4, #1
60102852:	4264      	neg	r4, r4
60102854:	1c20      	mov	r0, r4		(add r0, r4, #0)
60102856:	b007      	add	sp, #28
60102858:	bcf0      	pop	{r4, r5, r6, r7}
6010285a:	bc02      	pop	{r1}
6010285c:	4708      	bx	r1
6010285e:	0000      	lsl	r0, r0, #0
60102860:	3510      	add	r5, #16
60102862:	6010      	str	r0, [r2, #0]
60102864:	3f68      	sub	r7, #104
60102866:	6010      	str	r0, [r2, #0]
60102868:	35a8      	add	r5, #168
6010286a:	6010      	str	r0, [r2, #0]
6010286c:	7978      	ldrb	r0, [r7, #5]
6010286e:	6010      	str	r0, [r2, #0]
60102870:	3d70      	sub	r5, #112
60102872:	6010      	str	r0, [r2, #0]
60102874:	6fa5      	ldr	r5, [r4, #120]
60102876:	6010      	str	r0, [r2, #0]
60102878:	29cc      	cmp	r1, #204
6010287a:	6200      	str	r0, [r0, #32]
6010287c:	3f30      	sub	r7, #48
6010287e:	6010      	str	r0, [r2, #0]
60102880:	7980      	ldrb	r0, [r0, #6]
60102882:	6010      	str	r0, [r2, #0]
60102884:	3f10      	sub	r7, #16
60102886:	6010      	str	r0, [r2, #0]
60102888:	4710      	bx	r2
6010288a:	4718      	bx	r3
6010288c:	4720      	bx	r4
6010288e:	4738      	bx	r7

60102890 <GetMaxCharsXPos>:
60102890:	b500      	push	{lr}
60102892:	b082      	sub	sp, #8
60102894:	2300      	mov	r3, #0
60102896:	9301      	str	r3, [sp, #4]
60102898:	9300      	str	r3, [sp, #0]
6010289a:	4668      	mov	r0, sp
6010289c:	a901      	add	r1, sp, #4
6010289e:	4b05      	ldr	r3, [pc, #20]	(601028b4 <PROGRAM+0x270c>)
601028a0:	fe0af000 	bl	601034b8 <PROGRAM+0x3310>
601028a4:	9901      	ldr	r1, [sp, #4]
601028a6:	4b04      	ldr	r3, [pc, #16]	(601028b8 <PROGRAM+0x2710>)
601028a8:	2080      	mov	r0, #128
601028aa:	fe05f000 	bl	601034b8 <PROGRAM+0x3310>
601028ae:	b002      	add	sp, #8
601028b0:	bc02      	pop	{r1}
601028b2:	4708      	bx	r1
601028b4:	3578      	add	r5, #120
601028b6:	6010      	str	r0, [r2, #0]
601028b8:	42d1      	cmn	r1, r2
601028ba:	6010      	str	r0, [r2, #0]

601028bc <GetMaxYLines>:
601028bc:	b500      	push	{lr}
601028be:	b082      	sub	sp, #8
601028c0:	2300      	mov	r3, #0
601028c2:	9301      	str	r3, [sp, #4]
601028c4:	9300      	str	r3, [sp, #0]
601028c6:	4668      	mov	r0, sp
601028c8:	a901      	add	r1, sp, #4
601028ca:	4b05      	ldr	r3, [pc, #20]	(601028e0 <PROGRAM+0x2738>)
601028cc:	fdf4f000 	bl	601034b8 <PROGRAM+0x3310>
601028d0:	9900      	ldr	r1, [sp, #0]
601028d2:	4b04      	ldr	r3, [pc, #16]	(601028e4 <PROGRAM+0x273c>)
601028d4:	2080      	mov	r0, #128
601028d6:	fdeff000 	bl	601034b8 <PROGRAM+0x3310>
601028da:	b002      	add	sp, #8
601028dc:	bc02      	pop	{r1}
601028de:	4708      	bx	r1
601028e0:	3578      	add	r5, #120
601028e2:	6010      	str	r0, [r2, #0]
601028e4:	42d1      	cmn	r1, r2
601028e6:	6010      	str	r0, [r2, #0]

601028e8 <display_txt_header>:
601028e8:	b5f0      	push	{r4, r5, r6, r7, lr}
601028ea:	b083      	sub	sp, #12
601028ec:	1c14      	mov	r4, r2		(add r4, r2, #0)
601028ee:	1c05      	mov	r5, r0		(add r5, r0, #0)
601028f0:	1c0f      	mov	r7, r1		(add r7, r1, #0)
601028f2:	9302      	str	r3, [sp, #8]
601028f4:	ffccf7ff 	bl	60102890 <GetMaxCharsXPos>
601028f8:	2100      	mov	r1, #0
601028fa:	1e86      	sub	r6, r0, #2
601028fc:	4b16      	ldr	r3, [pc, #88]	(60102958 <PROGRAM+0x27b0>)
601028fe:	2000      	mov	r0, #0
60102900:	fddaf000 	bl	601034b8 <PROGRAM+0x3310>
60102904:	682d      	ldr	r5, [r5, #0]
60102906:	3c01      	sub	r4, #1
60102908:	42a5      	cmp	r5, r4
6010290a:	d108      	bne	6010291e <display_txt_header+0x36>
6010290c:	9b02      	ldr	r3, [sp, #8]
6010290e:	07db      	lsl	r3, r3, #31
60102910:	d405      	bmi	6010291e <display_txt_header+0x36>
60102912:	4812      	ldr	r0, [pc, #72]	(6010295c <PROGRAM+0x27b4>)
60102914:	211e      	mov	r1, #30
60102916:	1c32      	mov	r2, r6		(add r2, r6, #0)
60102918:	1c33      	mov	r3, r6		(add r3, r6, #0)
6010291a:	9700      	str	r7, [sp, #0]
6010291c:	e00a      	b	60102934 <display_txt_header+0x4c>
6010291e:	2d00      	cmp	r5, #0
60102920:	d10c      	bne	6010293c <display_txt_header+0x54>
60102922:	9b02      	ldr	r3, [sp, #8]
60102924:	07db      	lsl	r3, r3, #31
60102926:	d409      	bmi	6010293c <display_txt_header+0x54>
60102928:	231f      	mov	r3, #31
6010292a:	480d      	ldr	r0, [pc, #52]	(60102960 <PROGRAM+0x27b8>)
6010292c:	9300      	str	r3, [sp, #0]
6010292e:	1c31      	mov	r1, r6		(add r1, r6, #0)
60102930:	1c32      	mov	r2, r6		(add r2, r6, #0)
60102932:	1c3b      	mov	r3, r7		(add r3, r7, #0)
60102934:	4c0b      	ldr	r4, [pc, #44]	(60102964 <PROGRAM+0x27bc>)
60102936:	fdc0f000 	bl	601034ba <PROGRAM+0x3312>
6010293a:	e009      	b	60102950 <display_txt_header+0x68>
6010293c:	231f      	mov	r3, #31
6010293e:	9301      	str	r3, [sp, #4]
60102940:	4809      	ldr	r0, [pc, #36]	(60102968 <PROGRAM+0x27c0>)
60102942:	9700      	str	r7, [sp, #0]
60102944:	211e      	mov	r1, #30
60102946:	1c32      	mov	r2, r6		(add r2, r6, #0)
60102948:	1c33      	mov	r3, r6		(add r3, r6, #0)
6010294a:	4c06      	ldr	r4, [pc, #24]	(60102964 <PROGRAM+0x27bc>)
6010294c:	fdb5f000 	bl	601034ba <PROGRAM+0x3312>
60102950:	b003      	add	sp, #12
60102952:	bcf0      	pop	{r4, r5, r6, r7}
60102954:	bc01      	pop	{r0}
60102956:	4700      	bx	r0
60102958:	35a8      	add	r5, #168
6010295a:	6010      	str	r0, [r2, #0]
6010295c:	7984      	ldrb	r4, [r0, #6]
6010295e:	6010      	str	r0, [r2, #0]
60102960:	7990      	ldrb	r0, [r2, #6]
60102962:	6010      	str	r0, [r2, #0]
60102964:	3d70      	sub	r5, #112
60102966:	6010      	str	r0, [r2, #0]
60102968:	799c      	ldrb	r4, [r3, #6]
6010296a:	6010      	str	r0, [r2, #0]

6010296c <errorbeep>:
6010296c:	b510      	push	{r4, lr}
6010296e:	2005      	mov	r0, #5
60102970:	217f      	mov	r1, #127
60102972:	2264      	mov	r2, #100
60102974:	2300      	mov	r3, #0
60102976:	4c03      	ldr	r4, [pc, #12]	(60102984 <PROGRAM+0x27dc>)
60102978:	fd9ff000 	bl	601034ba <PROGRAM+0x3312>
6010297c:	bc10      	pop	{r4}
6010297e:	bc01      	pop	{r0}
60102980:	4700      	bx	r0
60102982:	0000      	lsl	r0, r0, #0
60102984:	36a0      	add	r6, #160
60102986:	6010      	str	r0, [r2, #0]

60102988 <ShowTextMenu>:
60102988:	b5f0      	push	{r4, r5, r6, r7, lr}
6010298a:	b08a      	sub	sp, #40
6010298c:	9106      	str	r1, [sp, #24]
6010298e:	9304      	str	r3, [sp, #16]
60102990:	1c05      	mov	r5, r0		(add r5, r0, #0)
60102992:	4b7b      	ldr	r3, [pc, #492]	(60102b80 <PROGRAM+0x29d8>)
60102994:	2004      	mov	r0, #4
60102996:	9205      	str	r2, [sp, #20]
60102998:	fd8ef000 	bl	601034b8 <PROGRAM+0x3310>
6010299c:	4c79      	ldr	r4, [pc, #484]	(60102b84 <PROGRAM+0x29dc>)
6010299e:	6823      	ldr	r3, [r4, #0]
601029a0:	6899      	ldr	r1, [r3, #8]
601029a2:	688b      	ldr	r3, [r1, #8]
601029a4:	1e58      	sub	r0, r3, #1
601029a6:	6088      	str	r0, [r1, #8]
601029a8:	2800      	cmp	r0, #0
601029aa:	da15      	bge	601029d8 <ShowTextMenu+0x50>
601029ac:	698b      	ldr	r3, [r1, #24]
601029ae:	4298      	cmp	r0, r3
601029b0:	db0d      	blt	601029ce <ShowTextMenu+0x46>
601029b2:	680a      	ldr	r2, [r1, #0]
601029b4:	230c      	mov	r3, #12
601029b6:	7013      	strb	r3, [r2, #0]
601029b8:	6823      	ldr	r3, [r4, #0]
601029ba:	6899      	ldr	r1, [r3, #8]
601029bc:	680a      	ldr	r2, [r1, #0]
601029be:	7813      	ldrb	r3, [r2, #0]
601029c0:	2b0a      	cmp	r3, #10
601029c2:	d002      	beq	601029ca <ShowTextMenu+0x42>
601029c4:	1c53      	add	r3, r2, #1
601029c6:	600b      	str	r3, [r1, #0]
601029c8:	e00e      	b	601029e8 <ShowTextMenu+0x60>
601029ca:	200a      	mov	r0, #10
601029cc:	e000      	b	601029d0 <ShowTextMenu+0x48>
601029ce:	200c      	mov	r0, #12
601029d0:	4b6d      	ldr	r3, [pc, #436]	(60102b88 <PROGRAM+0x29e0>)
601029d2:	fd71f000 	bl	601034b8 <PROGRAM+0x3310>
601029d6:	e007      	b	601029e8 <ShowTextMenu+0x60>
601029d8:	680a      	ldr	r2, [r1, #0]
601029da:	230c      	mov	r3, #12
601029dc:	7013      	strb	r3, [r2, #0]
601029de:	6823      	ldr	r3, [r4, #0]
601029e0:	689a      	ldr	r2, [r3, #8]
601029e2:	6813      	ldr	r3, [r2, #0]
601029e4:	3301      	add	r3, #1
601029e6:	6013      	str	r3, [r2, #0]
601029e8:	9806      	ldr	r0, [sp, #24]
601029ea:	2800      	cmp	r0, #0
601029ec:	d005      	beq	601029fa <ShowTextMenu+0x72>
601029ee:	1c28      	mov	r0, r5		(add r0, r5, #0)
601029f0:	9906      	ldr	r1, [sp, #24]
601029f2:	9a04      	ldr	r2, [sp, #16]
601029f4:	9b0f      	ldr	r3, [sp, #60]
601029f6:	ff77f7ff 	bl	601028e8 <display_txt_header>
601029fa:	9c06      	ldr	r4, [sp, #24]
601029fc:	2c00      	cmp	r4, #0
601029fe:	d000      	beq	60102a02 <ShowTextMenu+0x7a>
60102a00:	2401      	mov	r4, #1
60102a02:	9904      	ldr	r1, [sp, #16]
60102a04:	2909      	cmp	r1, #9
60102a06:	dd02      	ble	60102a0e <ShowTextMenu+0x86>
60102a08:	2202      	mov	r2, #2
60102a0a:	9209      	str	r2, [sp, #36]
60102a0c:	e001      	b	60102a12 <ShowTextMenu+0x8a>
60102a0e:	2301      	mov	r3, #1
60102a10:	9309      	str	r3, [sp, #36]
60102a12:	ff3df7ff 	bl	60102890 <GetMaxCharsXPos>
60102a16:	9909      	ldr	r1, [sp, #36]
60102a18:	1a40      	sub	r0, r0, r1
60102a1a:	1e46      	sub	r6, r0, #1
60102a1c:	ff4ef7ff 	bl	601028bc <GetMaxYLines>
60102a20:	2c00      	cmp	r4, #0
60102a22:	9403      	str	r4, [sp, #12]
60102a24:	d001      	beq	60102a2a <ShowTextMenu+0xa2>
60102a26:	2201      	mov	r2, #1
60102a28:	9203      	str	r2, [sp, #12]
60102a2a:	9b03      	ldr	r3, [sp, #12]
60102a2c:	1ac7      	sub	r7, r0, r3
60102a2e:	9804      	ldr	r0, [sp, #16]
60102a30:	4287      	cmp	r7, r0
60102a32:	dd01      	ble	60102a38 <ShowTextMenu+0xb0>
60102a34:	2100      	mov	r1, #0
60102a36:	e006      	b	60102a46 <ShowTextMenu+0xbe>
60102a38:	682a      	ldr	r2, [r5, #0]
60102a3a:	9804      	ldr	r0, [sp, #16]
60102a3c:	19d3      	add	r3, r2, r7
60102a3e:	9208      	str	r2, [sp, #32]
60102a40:	4283      	cmp	r3, r0
60102a42:	dd01      	ble	60102a48 <ShowTextMenu+0xc0>
60102a44:	1bc1      	sub	r1, r0, r7
60102a46:	9108      	str	r1, [sp, #32]
60102a48:	9808      	ldr	r0, [sp, #32]
60102a4a:	9905      	ldr	r1, [sp, #20]
60102a4c:	00c3      	lsl	r3, r0, #3
60102a4e:	2200      	mov	r2, #0
60102a50:	185b      	add	r3, r3, r1
60102a52:	9207      	str	r2, [sp, #28]
60102a54:	e039      	b	60102aca <ShowTextMenu+0x142>
60102a56:	9a07      	ldr	r2, [sp, #28]
60102a58:	9b08      	ldr	r3, [sp, #32]
60102a5a:	9803      	ldr	r0, [sp, #12]
60102a5c:	18d4      	add	r4, r2, r3
60102a5e:	1811      	add	r1, r2, r0
60102a60:	4b4a      	ldr	r3, [pc, #296]	(60102b8c <PROGRAM+0x29e4>)
60102a62:	2000      	mov	r0, #0
60102a64:	fd28f000 	bl	601034b8 <PROGRAM+0x3310>
60102a68:	682a      	ldr	r2, [r5, #0]
60102a6a:	42a2      	cmp	r2, r4
60102a6c:	d10b      	bne	60102a86 <ShowTextMenu+0xfe>
60102a6e:	9902      	ldr	r1, [sp, #8]
60102a70:	9600      	str	r6, [sp, #0]
60102a72:	680b      	ldr	r3, [r1, #0]
60102a74:	3201      	add	r2, #1
60102a76:	9301      	str	r3, [sp, #4]
60102a78:	9909      	ldr	r1, [sp, #36]
60102a7a:	1c33      	mov	r3, r6		(add r3, r6, #0)
60102a7c:	4c44      	ldr	r4, [pc, #272]	(60102b90 <PROGRAM+0x29e8>)
60102a7e:	4845      	ldr	r0, [pc, #276]	(60102b94 <PROGRAM+0x29ec>)
60102a80:	fd1bf000 	bl	601034ba <PROGRAM+0x3312>
60102a84:	e01c      	b	60102ac0 <ShowTextMenu+0x138>
60102a86:	4a42      	ldr	r2, [pc, #264]	(60102b90 <PROGRAM+0x29e8>)
60102a88:	9b04      	ldr	r3, [sp, #16]
60102a8a:	4694      	mov	ip, r2
60102a8c:	429c      	cmp	r4, r3
60102a8e:	da0f      	bge	60102ab0 <ShowTextMenu+0x128>
60102a90:	9808      	ldr	r0, [sp, #32]
60102a92:	9905      	ldr	r1, [sp, #20]
60102a94:	00c3      	lsl	r3, r0, #3
60102a96:	9807      	ldr	r0, [sp, #28]
60102a98:	9600      	str	r6, [sp, #0]
60102a9a:	18cb      	add	r3, r1, r3
60102a9c:	00c1      	lsl	r1, r0, #3
60102a9e:	58cb      	ldr	r3, [r1, r3]
60102aa0:	1c62      	add	r2, r4, #1
60102aa2:	9301      	str	r3, [sp, #4]
60102aa4:	9909      	ldr	r1, [sp, #36]
60102aa6:	1c33      	mov	r3, r6		(add r3, r6, #0)
60102aa8:	483b      	ldr	r0, [pc, #236]	(60102b98 <PROGRAM+0x29f0>)
60102aaa:	fd08f000 	bl	601034be <PROGRAM+0x3316>
60102aae:	e007      	b	60102ac0 <ShowTextMenu+0x138>
60102ab0:	9909      	ldr	r1, [sp, #36]
60102ab2:	1872      	add	r2, r6, r1
60102ab4:	3201      	add	r2, #1
60102ab6:	4839      	ldr	r0, [pc, #228]	(60102b9c <PROGRAM+0x29f4>)
60102ab8:	1c11      	mov	r1, r2		(add r1, r2, #0)
60102aba:	4b39      	ldr	r3, [pc, #228]	(60102ba0 <PROGRAM+0x29f8>)
60102abc:	fcfff000 	bl	601034be <PROGRAM+0x3316>
60102ac0:	9a07      	ldr	r2, [sp, #28]
60102ac2:	9b02      	ldr	r3, [sp, #8]
60102ac4:	3201      	add	r2, #1
60102ac6:	9207      	str	r2, [sp, #28]
60102ac8:	3308      	add	r3, #8
60102aca:	9807      	ldr	r0, [sp, #28]
60102acc:	9302      	str	r3, [sp, #8]
60102ace:	42b8      	cmp	r0, r7
60102ad0:	dbc1      	blt	60102a56 <ShowTextMenu+0xce>
60102ad2:	4b34      	ldr	r3, [pc, #208]	(60102ba4 <PROGRAM+0x29fc>)
60102ad4:	fcf0f000 	bl	601034b8 <PROGRAM+0x3310>
60102ad8:	2882      	cmp	r0, #130
60102ada:	d01f      	beq	60102b1c <ShowTextMenu+0x194>
60102adc:	2882      	cmp	r0, #130
60102ade:	dc08      	bgt	60102af2 <ShowTextMenu+0x16a>
60102ae0:	2880      	cmp	r0, #128
60102ae2:	d00f      	beq	60102b04 <ShowTextMenu+0x17c>
60102ae4:	2880      	cmp	r0, #128
60102ae6:	dc0f      	bgt	60102b08 <ShowTextMenu+0x180>
60102ae8:	1c03      	mov	r3, r0		(add r3, r0, #0)
60102aea:	3b31      	sub	r3, #49
60102aec:	2b08      	cmp	r3, #8
60102aee:	d831      	bhi	60102b54 <ShowTextMenu+0x1cc>
60102af0:	e01e      	b	60102b30 <ShowTextMenu+0x1a8>
60102af2:	2884      	cmp	r0, #132
60102af4:	d02a      	beq	60102b4c <ShowTextMenu+0x1c4>
60102af6:	2884      	cmp	r0, #132
60102af8:	db04      	blt	60102b04 <ShowTextMenu+0x17c>
60102afa:	2886      	cmp	r0, #134
60102afc:	d004      	beq	60102b08 <ShowTextMenu+0x180>
60102afe:	2887      	cmp	r0, #135
60102b00:	d128      	bne	60102b54 <ShowTextMenu+0x1cc>
60102b02:	e00b      	b	60102b1c <ShowTextMenu+0x194>
60102b04:	682b      	ldr	r3, [r5, #0]
60102b06:	e01b      	b	60102b40 <ShowTextMenu+0x1b8>
60102b08:	682b      	ldr	r3, [r5, #0]
60102b0a:	2b00      	cmp	r3, #0
60102b0c:	dc03      	bgt	60102b16 <ShowTextMenu+0x18e>
60102b0e:	9a0f      	ldr	r2, [sp, #60]
60102b10:	07d2      	lsl	r2, r2, #31
60102b12:	d51f      	bpl	60102b54 <ShowTextMenu+0x1cc>
60102b14:	9b04      	ldr	r3, [sp, #16]
60102b16:	3b01      	sub	r3, #1
60102b18:	602b      	str	r3, [r5, #0]
60102b1a:	e765      	b	601029e8 <ShowTextMenu+0x60>
60102b1c:	682b      	ldr	r3, [r5, #0]
60102b1e:	9804      	ldr	r0, [sp, #16]
60102b20:	3301      	add	r3, #1
60102b22:	4283      	cmp	r3, r0
60102b24:	dbf8      	blt	60102b18 <ShowTextMenu+0x190>
60102b26:	990f      	ldr	r1, [sp, #60]
60102b28:	07c9      	lsl	r1, r1, #31
60102b2a:	d513      	bpl	60102b54 <ShowTextMenu+0x1cc>
60102b2c:	2300      	mov	r3, #0
60102b2e:	e7f3      	b	60102b18 <ShowTextMenu+0x190>
60102b30:	2231      	mov	r2, #49
60102b32:	4252      	neg	r2, r2
60102b34:	1883      	add	r3, r0, r2
60102b36:	d40d      	bmi	60102b54 <ShowTextMenu+0x1cc>
60102b38:	9804      	ldr	r0, [sp, #16]
60102b3a:	4283      	cmp	r3, r0
60102b3c:	da0a      	bge	60102b54 <ShowTextMenu+0x1cc>
60102b3e:	602b      	str	r3, [r5, #0]
60102b40:	9905      	ldr	r1, [sp, #20]
60102b42:	00db      	lsl	r3, r3, #3
60102b44:	185b      	add	r3, r3, r1
60102b46:	685b      	ldr	r3, [r3, #4]
60102b48:	2b00      	cmp	r3, #0
60102b4a:	d106      	bne	60102b5a <ShowTextMenu+0x1d2>
60102b4c:	2301      	mov	r3, #1
60102b4e:	425b      	neg	r3, r3
60102b50:	602b      	str	r3, [r5, #0]
60102b52:	e002      	b	60102b5a <ShowTextMenu+0x1d2>
60102b54:	ff0af7ff 	bl	6010296c <errorbeep>
60102b58:	e746      	b	601029e8 <ShowTextMenu+0x60>
60102b5a:	682b      	ldr	r3, [r5, #0]
60102b5c:	1c5a      	add	r2, r3, #1
60102b5e:	d00a      	beq	60102b76 <ShowTextMenu+0x1ee>
60102b60:	9805      	ldr	r0, [sp, #20]
60102b62:	00db      	lsl	r3, r3, #3
60102b64:	181b      	add	r3, r3, r0
60102b66:	685b      	ldr	r3, [r3, #4]
60102b68:	fca6f000 	bl	601034b8 <PROGRAM+0x3310>
60102b6c:	2004      	mov	r0, #4
60102b6e:	4b04      	ldr	r3, [pc, #16]	(60102b80 <PROGRAM+0x29d8>)
60102b70:	fca2f000 	bl	601034b8 <PROGRAM+0x3310>
60102b74:	e738      	b	601029e8 <ShowTextMenu+0x60>
60102b76:	b00a      	add	sp, #40
60102b78:	bcf0      	pop	{r4, r5, r6, r7}
60102b7a:	bc01      	pop	{r0}
60102b7c:	4700      	bx	r0
60102b7e:	0000      	lsl	r0, r0, #0
60102b80:	3510      	add	r5, #16
60102b82:	6010      	str	r0, [r2, #0]
60102b84:	0414      	lsl	r4, r2, #16
60102b86:	6200      	str	r0, [r0, #32]
60102b88:	38e0      	sub	r0, #224
60102b8a:	6010      	str	r0, [r2, #0]
60102b8c:	35a8      	add	r5, #168
60102b8e:	6010      	str	r0, [r2, #0]
60102b90:	3d70      	sub	r5, #112
60102b92:	6010      	str	r0, [r2, #0]
60102b94:	79a8      	ldrb	r0, [r5, #6]
60102b96:	6010      	str	r0, [r2, #0]
60102b98:	79b8      	ldrb	r0, [r7, #6]
60102b9a:	6010      	str	r0, [r2, #0]
60102b9c:	79bc      	ldrb	r4, [r7, #6]
60102b9e:	6010      	str	r0, [r2, #0]
60102ba0:	798c      	ldrb	r4, [r1, #6]
60102ba2:	6010      	str	r0, [r2, #0]
60102ba4:	2215      	mov	r2, #21
60102ba6:	6010      	str	r0, [r2, #0]

60102ba8 <txt_menu_sel_set_value>:
60102ba8:	b510      	push	{r4, lr}
60102baa:	1c04      	mov	r4, r0		(add r4, r0, #0)
60102bac:	1c10      	mov	r0, r2		(add r0, r2, #0)
60102bae:	1c1a      	mov	r2, r3		(add r2, r3, #0)
60102bb0:	6823      	ldr	r3, [r4, #0]
60102bb2:	00db      	lsl	r3, r3, #3
60102bb4:	185b      	add	r3, r3, r1
60102bb6:	6859      	ldr	r1, [r3, #4]
60102bb8:	1c4b      	add	r3, r1, #1
60102bba:	d103      	bne	60102bc4 <txt_menu_sel_set_value+0x1c>
60102bbc:	2301      	mov	r3, #1
60102bbe:	425b      	neg	r3, r3
60102bc0:	6023      	str	r3, [r4, #0]
60102bc2:	e006      	b	60102bd2 <txt_menu_sel_set_value+0x2a>
60102bc4:	0783      	lsl	r3, r0, #30
60102bc6:	d503      	bpl	60102bd0 <txt_menu_sel_set_value+0x28>
60102bc8:	6813      	ldr	r3, [r2, #0]
60102bca:	404b      	eor	r3, r1
60102bcc:	6013      	str	r3, [r2, #0]
60102bce:	e000      	b	60102bd2 <txt_menu_sel_set_value+0x2a>
60102bd0:	6011      	str	r1, [r2, #0]
60102bd2:	0743      	lsl	r3, r0, #29
60102bd4:	d504      	bpl	60102be0 <txt_menu_sel_set_value+0x38>
60102bd6:	0783      	lsl	r3, r0, #30
60102bd8:	d402      	bmi	60102be0 <txt_menu_sel_set_value+0x38>
60102bda:	2301      	mov	r3, #1
60102bdc:	425b      	neg	r3, r3
60102bde:	6023      	str	r3, [r4, #0]
60102be0:	bc10      	pop	{r4}
60102be2:	bc01      	pop	{r0}
60102be4:	4700      	bx	r0
	...

60102be8 <ShowTextSelectionMenu>:
60102be8:	b5f0      	push	{r4, r5, r6, r7, lr}
60102bea:	b08b      	sub	sp, #44
60102bec:	9106      	str	r1, [sp, #24]
60102bee:	9304      	str	r3, [sp, #16]
60102bf0:	1c07      	mov	r7, r0		(add r7, r0, #0)
60102bf2:	4b86      	ldr	r3, [pc, #536]	(60102e0c <PROGRAM+0x2c64>)
60102bf4:	2004      	mov	r0, #4
60102bf6:	9205      	str	r2, [sp, #20]
60102bf8:	fc5ef000 	bl	601034b8 <PROGRAM+0x3310>
60102bfc:	4c84      	ldr	r4, [pc, #528]	(60102e10 <PROGRAM+0x2c68>)
60102bfe:	6823      	ldr	r3, [r4, #0]
60102c00:	6899      	ldr	r1, [r3, #8]
60102c02:	688b      	ldr	r3, [r1, #8]
60102c04:	1e58      	sub	r0, r3, #1
60102c06:	6088      	str	r0, [r1, #8]
60102c08:	2800      	cmp	r0, #0
60102c0a:	da15      	bge	60102c38 <ShowTextSelectionMenu+0x50>
60102c0c:	698b      	ldr	r3, [r1, #24]
60102c0e:	4298      	cmp	r0, r3
60102c10:	db0d      	blt	60102c2e <ShowTextSelectionMenu+0x46>
60102c12:	680a      	ldr	r2, [r1, #0]
60102c14:	230c      	mov	r3, #12
60102c16:	7013      	strb	r3, [r2, #0]
60102c18:	6823      	ldr	r3, [r4, #0]
60102c1a:	6899      	ldr	r1, [r3, #8]
60102c1c:	680a      	ldr	r2, [r1, #0]
60102c1e:	7813      	ldrb	r3, [r2, #0]
60102c20:	2b0a      	cmp	r3, #10
60102c22:	d002      	beq	60102c2a <ShowTextSelectionMenu+0x42>
60102c24:	1c53      	add	r3, r2, #1
60102c26:	600b      	str	r3, [r1, #0]
60102c28:	e00e      	b	60102c48 <ShowTextSelectionMenu+0x60>
60102c2a:	200a      	mov	r0, #10
60102c2c:	e000      	b	60102c30 <ShowTextSelectionMenu+0x48>
60102c2e:	200c      	mov	r0, #12
60102c30:	4b78      	ldr	r3, [pc, #480]	(60102e14 <PROGRAM+0x2c6c>)
60102c32:	fc41f000 	bl	601034b8 <PROGRAM+0x3310>
60102c36:	e007      	b	60102c48 <ShowTextSelectionMenu+0x60>
60102c38:	680a      	ldr	r2, [r1, #0]
60102c3a:	230c      	mov	r3, #12
60102c3c:	7013      	strb	r3, [r2, #0]
60102c3e:	6823      	ldr	r3, [r4, #0]
60102c40:	689a      	ldr	r2, [r3, #8]
60102c42:	6813      	ldr	r3, [r2, #0]
60102c44:	3301      	add	r3, #1
60102c46:	6013      	str	r3, [r2, #0]
60102c48:	9906      	ldr	r1, [sp, #24]
60102c4a:	2900      	cmp	r1, #0
60102c4c:	d004      	beq	60102c58 <ShowTextSelectionMenu+0x70>
60102c4e:	1c38      	mov	r0, r7		(add r0, r7, #0)
60102c50:	9a04      	ldr	r2, [sp, #16]
60102c52:	9b10      	ldr	r3, [sp, #64]
60102c54:	fe48f7ff 	bl	601028e8 <display_txt_header>
60102c58:	9c06      	ldr	r4, [sp, #24]
60102c5a:	2c00      	cmp	r4, #0
60102c5c:	d000      	beq	60102c60 <ShowTextSelectionMenu+0x78>
60102c5e:	2401      	mov	r4, #1
60102c60:	9a04      	ldr	r2, [sp, #16]
60102c62:	2a09      	cmp	r2, #9
60102c64:	dd02      	ble	60102c6c <ShowTextSelectionMenu+0x84>
60102c66:	2302      	mov	r3, #2
60102c68:	9309      	str	r3, [sp, #36]
60102c6a:	e001      	b	60102c70 <ShowTextSelectionMenu+0x88>
60102c6c:	2101      	mov	r1, #1
60102c6e:	9109      	str	r1, [sp, #36]
60102c70:	fe0ef7ff 	bl	60102890 <GetMaxCharsXPos>
60102c74:	9a09      	ldr	r2, [sp, #36]
60102c76:	1a80      	sub	r0, r0, r2
60102c78:	1e46      	sub	r6, r0, #1
60102c7a:	fe1ff7ff 	bl	601028bc <GetMaxYLines>
60102c7e:	2c00      	cmp	r4, #0
60102c80:	9403      	str	r4, [sp, #12]
60102c82:	d001      	beq	60102c88 <ShowTextSelectionMenu+0xa0>
60102c84:	2301      	mov	r3, #1
60102c86:	9303      	str	r3, [sp, #12]
60102c88:	9c03      	ldr	r4, [sp, #12]
60102c8a:	9904      	ldr	r1, [sp, #16]
60102c8c:	1b00      	sub	r0, r0, r4
60102c8e:	9008      	str	r0, [sp, #32]
60102c90:	4288      	cmp	r0, r1
60102c92:	dd01      	ble	60102c98 <ShowTextSelectionMenu+0xb0>
60102c94:	2200      	mov	r2, #0
60102c96:	e006      	b	60102ca6 <ShowTextSelectionMenu+0xbe>
60102c98:	683a      	ldr	r2, [r7, #0]
60102c9a:	9c08      	ldr	r4, [sp, #32]
60102c9c:	9904      	ldr	r1, [sp, #16]
60102c9e:	1913      	add	r3, r2, r4
60102ca0:	428b      	cmp	r3, r1
60102ca2:	dd00      	ble	60102ca6 <ShowTextSelectionMenu+0xbe>
60102ca4:	1b0a      	sub	r2, r1, r4
60102ca6:	00d3      	lsl	r3, r2, #3
60102ca8:	1c15      	mov	r5, r2		(add r5, r2, #0)
60102caa:	9a05      	ldr	r2, [sp, #20]
60102cac:	18d3      	add	r3, r2, r3
60102cae:	930a      	str	r3, [sp, #40]
60102cb0:	2300      	mov	r3, #0
60102cb2:	9307      	str	r3, [sp, #28]
60102cb4:	e05b      	b	60102d6e <ShowTextSelectionMenu+0x186>
60102cb6:	9c07      	ldr	r4, [sp, #28]
60102cb8:	9a03      	ldr	r2, [sp, #12]
60102cba:	4b57      	ldr	r3, [pc, #348]	(60102e18 <PROGRAM+0x2c70>)
60102cbc:	18a1      	add	r1, r4, r2
60102cbe:	2000      	mov	r0, #0
60102cc0:	fbfaf000 	bl	601034b8 <PROGRAM+0x3310>
60102cc4:	683b      	ldr	r3, [r7, #0]
60102cc6:	42ab      	cmp	r3, r5
60102cc8:	d127      	bne	60102d1a <ShowTextSelectionMenu+0x132>
60102cca:	9c11      	ldr	r4, [sp, #68]
60102ccc:	9910      	ldr	r1, [sp, #64]
60102cce:	1c6a      	add	r2, r5, #1
60102cd0:	00eb      	lsl	r3, r5, #3
60102cd2:	6820      	ldr	r0, [r4, #0]
60102cd4:	0789      	lsl	r1, r1, #30
60102cd6:	d50d      	bpl	60102cf4 <ShowTextSelectionMenu+0x10c>
60102cd8:	9c05      	ldr	r4, [sp, #20]
60102cda:	18e3      	add	r3, r4, r3
60102cdc:	6859      	ldr	r1, [r3, #4]
60102cde:	4201      	tst	r1, r0
60102ce0:	d003      	beq	60102cea <ShowTextSelectionMenu+0x102>
60102ce2:	3101      	add	r1, #1
60102ce4:	d001      	beq	60102cea <ShowTextSelectionMenu+0x102>
60102ce6:	242a      	mov	r4, #42
60102ce8:	e000      	b	60102cec <ShowTextSelectionMenu+0x104>
60102cea:	2420      	mov	r4, #32
60102cec:	9600      	str	r6, [sp, #0]
60102cee:	9601      	str	r6, [sp, #4]
60102cf0:	681b      	ldr	r3, [r3, #0]
60102cf2:	e00a      	b	60102d0a <ShowTextSelectionMenu+0x122>
60102cf4:	9c05      	ldr	r4, [sp, #20]
60102cf6:	18e1      	add	r1, r4, r3
60102cf8:	684b      	ldr	r3, [r1, #4]
60102cfa:	4283      	cmp	r3, r0
60102cfc:	d101      	bne	60102d02 <ShowTextSelectionMenu+0x11a>
60102cfe:	242a      	mov	r4, #42
60102d00:	e000      	b	60102d04 <ShowTextSelectionMenu+0x11c>
60102d02:	2420      	mov	r4, #32
60102d04:	9600      	str	r6, [sp, #0]
60102d06:	9601      	str	r6, [sp, #4]
60102d08:	680b      	ldr	r3, [r1, #0]
60102d0a:	9302      	str	r3, [sp, #8]
60102d0c:	4843      	ldr	r0, [pc, #268]	(60102e1c <PROGRAM+0x2c74>)
60102d0e:	1c23      	mov	r3, r4		(add r3, r4, #0)
60102d10:	9909      	ldr	r1, [sp, #36]
60102d12:	4c43      	ldr	r4, [pc, #268]	(60102e20 <PROGRAM+0x2c78>)
60102d14:	fbd1f000 	bl	601034ba <PROGRAM+0x3312>
60102d18:	e022      	b	60102d60 <ShowTextSelectionMenu+0x178>
60102d1a:	9904      	ldr	r1, [sp, #16]
60102d1c:	428d      	cmp	r5, r1
60102d1e:	da16      	bge	60102d4e <ShowTextSelectionMenu+0x166>
60102d20:	9b11      	ldr	r3, [sp, #68]
60102d22:	9c0a      	ldr	r4, [sp, #40]
60102d24:	9910      	ldr	r1, [sp, #64]
60102d26:	6818      	ldr	r0, [r3, #0]
60102d28:	1c6a      	add	r2, r5, #1
60102d2a:	6863      	ldr	r3, [r4, #4]
60102d2c:	0789      	lsl	r1, r1, #30
60102d2e:	d502      	bpl	60102d36 <ShowTextSelectionMenu+0x14e>
60102d30:	4203      	tst	r3, r0
60102d32:	d102      	bne	60102d3a <ShowTextSelectionMenu+0x152>
60102d34:	e003      	b	60102d3e <ShowTextSelectionMenu+0x156>
60102d36:	4283      	cmp	r3, r0
60102d38:	d101      	bne	60102d3e <ShowTextSelectionMenu+0x156>
60102d3a:	242a      	mov	r4, #42
60102d3c:	e000      	b	60102d40 <ShowTextSelectionMenu+0x158>
60102d3e:	2420      	mov	r4, #32
60102d40:	9600      	str	r6, [sp, #0]
60102d42:	9601      	str	r6, [sp, #4]
60102d44:	990a      	ldr	r1, [sp, #40]
60102d46:	4837      	ldr	r0, [pc, #220]	(60102e24 <PROGRAM+0x2c7c>)
60102d48:	680b      	ldr	r3, [r1, #0]
60102d4a:	9302      	str	r3, [sp, #8]
60102d4c:	e7df      	b	60102d0e <ShowTextSelectionMenu+0x126>
60102d4e:	9b09      	ldr	r3, [sp, #36]
60102d50:	18f2      	add	r2, r6, r3
60102d52:	3201      	add	r2, #1
60102d54:	4834      	ldr	r0, [pc, #208]	(60102e28 <PROGRAM+0x2c80>)
60102d56:	1c11      	mov	r1, r2		(add r1, r2, #0)
60102d58:	4b34      	ldr	r3, [pc, #208]	(60102e2c <PROGRAM+0x2c84>)
60102d5a:	4c31      	ldr	r4, [pc, #196]	(60102e20 <PROGRAM+0x2c78>)
60102d5c:	fbadf000 	bl	601034ba <PROGRAM+0x3312>
60102d60:	9c07      	ldr	r4, [sp, #28]
60102d62:	990a      	ldr	r1, [sp, #40]
60102d64:	3401      	add	r4, #1
60102d66:	3108      	add	r1, #8
60102d68:	9407      	str	r4, [sp, #28]
60102d6a:	910a      	str	r1, [sp, #40]
60102d6c:	3501      	add	r5, #1
60102d6e:	9a07      	ldr	r2, [sp, #28]
60102d70:	9b08      	ldr	r3, [sp, #32]
60102d72:	429a      	cmp	r2, r3
60102d74:	db9f      	blt	60102cb6 <ShowTextSelectionMenu+0xce>
60102d76:	4b2e      	ldr	r3, [pc, #184]	(60102e30 <PROGRAM+0x2c88>)
60102d78:	fb9ef000 	bl	601034b8 <PROGRAM+0x3310>
60102d7c:	2882      	cmp	r0, #130
60102d7e:	d01d      	beq	60102dbc <ShowTextSelectionMenu+0x1d4>
60102d80:	2882      	cmp	r0, #130
60102d82:	dc08      	bgt	60102d96 <ShowTextSelectionMenu+0x1ae>
60102d84:	2880      	cmp	r0, #128
60102d86:	d02f      	beq	60102de8 <ShowTextSelectionMenu+0x200>
60102d88:	2880      	cmp	r0, #128
60102d8a:	dc0d      	bgt	60102da8 <ShowTextSelectionMenu+0x1c0>
60102d8c:	1c03      	mov	r3, r0		(add r3, r0, #0)
60102d8e:	3b31      	sub	r3, #49
60102d90:	2b08      	cmp	r3, #8
60102d92:	d830      	bhi	60102df6 <ShowTextSelectionMenu+0x20e>
60102d94:	e020      	b	60102dd8 <ShowTextSelectionMenu+0x1f0>
60102d96:	2884      	cmp	r0, #132
60102d98:	d01a      	beq	60102dd0 <ShowTextSelectionMenu+0x1e8>
60102d9a:	2884      	cmp	r0, #132
60102d9c:	db24      	blt	60102de8 <ShowTextSelectionMenu+0x200>
60102d9e:	2886      	cmp	r0, #134
60102da0:	d002      	beq	60102da8 <ShowTextSelectionMenu+0x1c0>
60102da2:	2887      	cmp	r0, #135
60102da4:	d127      	bne	60102df6 <ShowTextSelectionMenu+0x20e>
60102da6:	e009      	b	60102dbc <ShowTextSelectionMenu+0x1d4>
60102da8:	683b      	ldr	r3, [r7, #0]
60102daa:	2b00      	cmp	r3, #0
60102dac:	dc03      	bgt	60102db6 <ShowTextSelectionMenu+0x1ce>
60102dae:	9c10      	ldr	r4, [sp, #64]
60102db0:	07e4      	lsl	r4, r4, #31
60102db2:	d520      	bpl	60102df6 <ShowTextSelectionMenu+0x20e>
60102db4:	9b04      	ldr	r3, [sp, #16]
60102db6:	3b01      	sub	r3, #1
60102db8:	603b      	str	r3, [r7, #0]
60102dba:	e745      	b	60102c48 <ShowTextSelectionMenu+0x60>
60102dbc:	683b      	ldr	r3, [r7, #0]
60102dbe:	9904      	ldr	r1, [sp, #16]
60102dc0:	3301      	add	r3, #1
60102dc2:	428b      	cmp	r3, r1
60102dc4:	dbf8      	blt	60102db8 <ShowTextSelectionMenu+0x1d0>
60102dc6:	9a10      	ldr	r2, [sp, #64]
60102dc8:	07d2      	lsl	r2, r2, #31
60102dca:	d514      	bpl	60102df6 <ShowTextSelectionMenu+0x20e>
60102dcc:	2300      	mov	r3, #0
60102dce:	e7f3      	b	60102db8 <ShowTextSelectionMenu+0x1d0>
60102dd0:	2301      	mov	r3, #1
60102dd2:	425b      	neg	r3, r3
60102dd4:	603b      	str	r3, [r7, #0]
60102dd6:	e011      	b	60102dfc <ShowTextSelectionMenu+0x214>
60102dd8:	2431      	mov	r4, #49
60102dda:	4264      	neg	r4, r4
60102ddc:	1903      	add	r3, r0, r4
60102dde:	d40a      	bmi	60102df6 <ShowTextSelectionMenu+0x20e>
60102de0:	9904      	ldr	r1, [sp, #16]
60102de2:	428b      	cmp	r3, r1
60102de4:	da07      	bge	60102df6 <ShowTextSelectionMenu+0x20e>
60102de6:	603b      	str	r3, [r7, #0]
60102de8:	1c38      	mov	r0, r7		(add r0, r7, #0)
60102dea:	9905      	ldr	r1, [sp, #20]
60102dec:	9a10      	ldr	r2, [sp, #64]
60102dee:	9b11      	ldr	r3, [sp, #68]
60102df0:	fedaf7ff 	bl	60102ba8 <txt_menu_sel_set_value>
60102df4:	e002      	b	60102dfc <ShowTextSelectionMenu+0x214>
60102df6:	fdb9f7ff 	bl	6010296c <errorbeep>
60102dfa:	e725      	b	60102c48 <ShowTextSelectionMenu+0x60>
60102dfc:	683b      	ldr	r3, [r7, #0]
60102dfe:	3301      	add	r3, #1
60102e00:	d000      	beq	60102e04 <ShowTextSelectionMenu+0x21c>
60102e02:	e721      	b	60102c48 <ShowTextSelectionMenu+0x60>
60102e04:	b00b      	add	sp, #44
60102e06:	bcf0      	pop	{r4, r5, r6, r7}
60102e08:	bc01      	pop	{r0}
60102e0a:	4700      	bx	r0
60102e0c:	3510      	add	r5, #16
60102e0e:	6010      	str	r0, [r2, #0]
60102e10:	0414      	lsl	r4, r2, #16
60102e12:	6200      	str	r0, [r0, #32]
60102e14:	38e0      	sub	r0, #224
60102e16:	6010      	str	r0, [r2, #0]
60102e18:	35a8      	add	r5, #168
60102e1a:	6010      	str	r0, [r2, #0]
60102e1c:	79c4      	ldrb	r4, [r0, #7]
60102e1e:	6010      	str	r0, [r2, #0]
60102e20:	3d70      	sub	r5, #112
60102e22:	6010      	str	r0, [r2, #0]
60102e24:	79d8      	ldrb	r0, [r3, #7]
60102e26:	6010      	str	r0, [r2, #0]
60102e28:	79bc      	ldrb	r4, [r7, #6]
60102e2a:	6010      	str	r0, [r2, #0]
60102e2c:	798c      	ldrb	r4, [r1, #6]
60102e2e:	6010      	str	r0, [r2, #0]
60102e30:	2215      	mov	r2, #21
60102e32:	6010      	str	r0, [r2, #0]

60102e34 <InitGraphMenu>:
60102e34:	b500      	push	{lr}
60102e36:	4804      	ldr	r0, [pc, #16]	(60102e48 <PROGRAM+0x2ca0>)
60102e38:	2100      	mov	r1, #0
60102e3a:	220a      	mov	r2, #10
60102e3c:	4b03      	ldr	r3, [pc, #12]	(60102e4c <PROGRAM+0x2ca4>)
60102e3e:	fb3bf000 	bl	601034b8 <PROGRAM+0x3310>
60102e42:	bc01      	pop	{r0}
60102e44:	4700      	bx	r0
60102e46:	0000      	lsl	r0, r0, #0
60102e48:	2a40      	cmp	r2, #64
60102e4a:	6200      	str	r0, [r0, #32]
60102e4c:	3cf8      	sub	r4, #248
60102e4e:	6010      	str	r0, [r2, #0]

60102e50 <GraphIncLayer>:
60102e50:	4a07      	ldr	r2, [pc, #28]	(60102e70 <PROGRAM+0x2cc8>)
60102e52:	2100      	mov	r1, #0
60102e54:	6813      	ldr	r3, [r2, #0]
60102e56:	2b00      	cmp	r3, #0
60102e58:	d104      	bne	60102e64 <GraphIncLayer+0x14>
60102e5a:	4a05      	ldr	r2, [pc, #20]	(60102e70 <PROGRAM+0x2cc8>)
60102e5c:	008b      	lsl	r3, r1, #2
60102e5e:	5098      	str	r0, [r3, r2]
60102e60:	2001      	mov	r0, #1
60102e62:	e004      	b	60102e6e <GraphIncLayer+0x1e>
60102e64:	3101      	add	r1, #1
60102e66:	3204      	add	r2, #4
60102e68:	290a      	cmp	r1, #10
60102e6a:	d1f3      	bne	60102e54 <GraphIncLayer+0x4>
60102e6c:	2000      	mov	r0, #0
60102e6e:	4770      	bx	lr
60102e70:	2a40      	cmp	r2, #64
60102e72:	6200      	str	r0, [r0, #32]

60102e74 <build_layer_string>:
60102e74:	b5f0      	push	{r4, r5, r6, r7, lr}
60102e76:	2300      	mov	r3, #0
60102e78:	7003      	strb	r3, [r0, #0]
60102e7a:	4e17      	ldr	r6, [pc, #92]	(60102ed8 <PROGRAM+0x2d30>)
60102e7c:	1c05      	mov	r5, r0		(add r5, r0, #0)
60102e7e:	2700      	mov	r7, #0
60102e80:	6833      	ldr	r3, [r6, #0]
60102e82:	2b00      	cmp	r3, #0
60102e84:	d020      	beq	60102ec8 <build_layer_string+0x54>
60102e86:	782b      	ldrb	r3, [r5, #0]
60102e88:	2b00      	cmp	r3, #0
60102e8a:	d004      	beq	60102e96 <build_layer_string+0x22>
60102e8c:	1c28      	mov	r0, r5		(add r0, r5, #0)
60102e8e:	4913      	ldr	r1, [pc, #76]	(60102edc <PROGRAM+0x2d34>)
60102e90:	4b13      	ldr	r3, [pc, #76]	(60102ee0 <PROGRAM+0x2d38>)
60102e92:	fb11f000 	bl	601034b8 <PROGRAM+0x3310>
60102e96:	4c13      	ldr	r4, [pc, #76]	(60102ee4 <PROGRAM+0x2d3c>)
60102e98:	ce04      	ldmia	r6!,{r2}
60102e9a:	4913      	ldr	r1, [pc, #76]	(60102ee8 <PROGRAM+0x2d40>)
60102e9c:	4b13      	ldr	r3, [pc, #76]	(60102eec <PROGRAM+0x2d44>)
60102e9e:	1c20      	mov	r0, r4		(add r0, r4, #0)
60102ea0:	fb0af000 	bl	601034b8 <PROGRAM+0x3310>
60102ea4:	3701      	add	r7, #1
60102ea6:	1c28      	mov	r0, r5		(add r0, r5, #0)
60102ea8:	1c21      	mov	r1, r4		(add r1, r4, #0)
60102eaa:	4b0d      	ldr	r3, [pc, #52]	(60102ee0 <PROGRAM+0x2d38>)
60102eac:	fb04f000 	bl	601034b8 <PROGRAM+0x3310>
60102eb0:	2f0a      	cmp	r7, #10
60102eb2:	d1e5      	bne	60102e80 <build_layer_string+0xc>
60102eb4:	4b0e      	ldr	r3, [pc, #56]	(60102ef0 <PROGRAM+0x2d48>)
60102eb6:	1c28      	mov	r0, r5		(add r0, r5, #0)
60102eb8:	212d      	mov	r1, #45
60102eba:	fafdf000 	bl	601034b8 <PROGRAM+0x3310>
60102ebe:	2800      	cmp	r0, #0
60102ec0:	d004      	beq	60102ecc <build_layer_string+0x58>
60102ec2:	2300      	mov	r3, #0
60102ec4:	7003      	strb	r3, [r0, #0]
60102ec6:	e002      	b	60102ece <build_layer_string+0x5a>
60102ec8:	3f01      	sub	r7, #1
60102eca:	e7f3      	b	60102eb4 <build_layer_string+0x40>
60102ecc:	7028      	strb	r0, [r5, #0]
60102ece:	1c38      	mov	r0, r7		(add r0, r7, #0)
60102ed0:	bcf0      	pop	{r4, r5, r6, r7}
60102ed2:	bc02      	pop	{r1}
60102ed4:	4708      	bx	r1
60102ed6:	0000      	lsl	r0, r0, #0
60102ed8:	2a40      	cmp	r2, #64
60102eda:	6200      	str	r0, [r0, #32]
60102edc:	7980      	ldrb	r0, [r0, #6]
60102ede:	6010      	str	r0, [r2, #0]
60102ee0:	3f10      	sub	r7, #16
60102ee2:	6010      	str	r0, [r2, #0]
60102ee4:	2a00      	cmp	r2, #0
60102ee6:	6200      	str	r0, [r0, #32]
60102ee8:	79e8      	ldrb	r0, [r5, #7]
60102eea:	6010      	str	r0, [r2, #0]
60102eec:	3ef0      	sub	r6, #240
60102eee:	6010      	str	r0, [r2, #0]
60102ef0:	3fb8      	sub	r7, #184
60102ef2:	6010      	str	r0, [r2, #0]

60102ef4 <display_layer>:
60102ef4:	b530      	push	{r4, r5, lr}
60102ef6:	b082      	sub	sp, #8
60102ef8:	1c04      	mov	r4, r0		(add r4, r0, #0)
60102efa:	4b10      	ldr	r3, [pc, #64]	(60102f3c <PROGRAM+0x2d94>)
60102efc:	2000      	mov	r0, #0
60102efe:	1c0d      	mov	r5, r1		(add r5, r1, #0)
60102f00:	2100      	mov	r1, #0
60102f02:	fad9f000 	bl	601034b8 <PROGRAM+0x3310>
60102f06:	4b0e      	ldr	r3, [pc, #56]	(60102f40 <PROGRAM+0x2d98>)
60102f08:	2100      	mov	r1, #0
60102f0a:	2002      	mov	r0, #2
60102f0c:	fad4f000 	bl	601034b8 <PROGRAM+0x3310>
60102f10:	fcbef7ff 	bl	60102890 <GetMaxCharsXPos>
60102f14:	7823      	ldrb	r3, [r4, #0]
60102f16:	1ec2      	sub	r2, r0, #3
60102f18:	2b00      	cmp	r3, #0
60102f1a:	d001      	beq	60102f20 <display_layer+0x2c>
60102f1c:	232d      	mov	r3, #45
60102f1e:	e000      	b	60102f22 <display_layer+0x2e>
60102f20:	2320      	mov	r3, #32
60102f22:	9501      	str	r5, [sp, #4]
60102f24:	9300      	str	r3, [sp, #0]
60102f26:	1c11      	mov	r1, r2		(add r1, r2, #0)
60102f28:	1c23      	mov	r3, r4		(add r3, r4, #0)
60102f2a:	4806      	ldr	r0, [pc, #24]	(60102f44 <PROGRAM+0x2d9c>)
60102f2c:	4c06      	ldr	r4, [pc, #24]	(60102f48 <PROGRAM+0x2da0>)
60102f2e:	fac4f000 	bl	601034ba <PROGRAM+0x3312>
60102f32:	b002      	add	sp, #8
60102f34:	bc30      	pop	{r4, r5}
60102f36:	bc01      	pop	{r0}
60102f38:	4700      	bx	r0
60102f3a:	0000      	lsl	r0, r0, #0
60102f3c:	35a8      	add	r5, #168
60102f3e:	6010      	str	r0, [r2, #0]
60102f40:	3668      	add	r6, #104
60102f42:	6010      	str	r0, [r2, #0]
60102f44:	79ec      	ldrb	r4, [r5, #7]
60102f46:	6010      	str	r0, [r2, #0]
60102f48:	3d70      	sub	r5, #112
60102f4a:	6010      	str	r0, [r2, #0]

60102f4c <display_menu_item_text>:
60102f4c:	b570      	push	{r4, r5, r6, lr}
60102f4e:	1c06      	mov	r6, r0		(add r6, r0, #0)
60102f50:	2100      	mov	r1, #0
60102f52:	4b0f      	ldr	r3, [pc, #60]	(60102f90 <PROGRAM+0x2de8>)
60102f54:	2004      	mov	r0, #4
60102f56:	faaff000 	bl	601034b8 <PROGRAM+0x3310>
60102f5a:	fc99f7ff 	bl	60102890 <GetMaxCharsXPos>
60102f5e:	2100      	mov	r1, #0
60102f60:	4b0c      	ldr	r3, [pc, #48]	(60102f94 <PROGRAM+0x2dec>)
60102f62:	1c04      	mov	r4, r0		(add r4, r0, #0)
60102f64:	2000      	mov	r0, #0
60102f66:	faa7f000 	bl	601034b8 <PROGRAM+0x3310>
60102f6a:	3c01      	sub	r4, #1
60102f6c:	4d0a      	ldr	r5, [pc, #40]	(60102f98 <PROGRAM+0x2df0>)
60102f6e:	2008      	mov	r0, #8
60102f70:	faa4f000 	bl	601034bc <PROGRAM+0x3314>
60102f74:	1c21      	mov	r1, r4		(add r1, r4, #0)
60102f76:	1c22      	mov	r2, r4		(add r2, r4, #0)
60102f78:	1c33      	mov	r3, r6		(add r3, r6, #0)
60102f7a:	4c08      	ldr	r4, [pc, #32]	(60102f9c <PROGRAM+0x2df4>)
60102f7c:	4808      	ldr	r0, [pc, #32]	(60102fa0 <PROGRAM+0x2df8>)
60102f7e:	fa9cf000 	bl	601034ba <PROGRAM+0x3312>
60102f82:	2000      	mov	r0, #0
60102f84:	fa9af000 	bl	601034bc <PROGRAM+0x3314>
60102f88:	bc70      	pop	{r4, r5, r6}
60102f8a:	bc01      	pop	{r0}
60102f8c:	4700      	bx	r0
60102f8e:	0000      	lsl	r0, r0, #0
60102f90:	3668      	add	r6, #104
60102f92:	6010      	str	r0, [r2, #0]
60102f94:	35a8      	add	r5, #168
60102f96:	6010      	str	r0, [r2, #0]
60102f98:	3648      	add	r6, #72
60102f9a:	6010      	str	r0, [r2, #0]
60102f9c:	3d70      	sub	r5, #112
60102f9e:	6010      	str	r0, [r2, #0]
60102fa0:	719c      	strb	r4, [r3, #6]
60102fa2:	6010      	str	r0, [r2, #0]

60102fa4 <display_image>:
60102fa4:	b500      	push	{lr}
60102fa6:	1c02      	mov	r2, r0		(add r2, r0, #0)
60102fa8:	2800      	cmp	r0, #0
60102faa:	d102      	bne	60102fb2 <display_image+0xe>
60102fac:	4a0c      	ldr	r2, [pc, #48]	(60102fe0 <PROGRAM+0x2e38>)
60102fae:	2020      	mov	r0, #32
60102fb0:	e00f      	b	60102fd2 <display_image+0x2e>
60102fb2:	4b0c      	ldr	r3, [pc, #48]	(60102fe4 <PROGRAM+0x2e3c>)
60102fb4:	4298      	cmp	r0, r3
60102fb6:	d002      	beq	60102fbe <display_image+0x1a>
60102fb8:	4b0b      	ldr	r3, [pc, #44]	(60102fe8 <PROGRAM+0x2e40>)
60102fba:	4298      	cmp	r0, r3
60102fbc:	d105      	bne	60102fca <display_image+0x26>
60102fbe:	7853      	ldrb	r3, [r2, #1]
60102fc0:	2040      	mov	r0, #64
60102fc2:	085b      	lsr	r3, r3, #1
60102fc4:	1ac0      	sub	r0, r0, r3
60102fc6:	2131      	mov	r1, #49
60102fc8:	e004      	b	60102fd4 <display_image+0x30>
60102fca:	7843      	ldrb	r3, [r0, #1]
60102fcc:	2040      	mov	r0, #64
60102fce:	085b      	lsr	r3, r3, #1
60102fd0:	1ac0      	sub	r0, r0, r3
60102fd2:	2127      	mov	r1, #39
60102fd4:	4b05      	ldr	r3, [pc, #20]	(60102fec <PROGRAM+0x2e44>)
60102fd6:	fa6ff000 	bl	601034b8 <PROGRAM+0x3310>
60102fda:	bc01      	pop	{r0}
60102fdc:	4700      	bx	r0
60102fde:	0000      	lsl	r0, r0, #0
60102fe0:	6da2      	ldr	r2, [r4, #88]
60102fe2:	6010      	str	r0, [r2, #0]
60102fe4:	6cea      	ldr	r2, [r5, #76]
60102fe6:	6010      	str	r0, [r2, #0]
60102fe8:	6c68      	ldr	r0, [r5, #68]
60102fea:	6010      	str	r0, [r2, #0]
60102fec:	3698      	add	r6, #152
60102fee:	6010      	str	r0, [r2, #0]

60102ff0 <display_selection_bar>:
60102ff0:	b510      	push	{r4, lr}
60102ff2:	4c09      	ldr	r4, [pc, #36]	(60103018 <PROGRAM+0x2e70>)
60102ff4:	4a09      	ldr	r2, [pc, #36]	(6010301c <PROGRAM+0x2e74>)
60102ff6:	2000      	mov	r0, #0
60102ff8:	2178      	mov	r1, #120
60102ffa:	fa5ef000 	bl	601034ba <PROGRAM+0x3312>
60102ffe:	4a08      	ldr	r2, [pc, #32]	(60103020 <PROGRAM+0x2e78>)
60103000:	2030      	mov	r0, #48
60103002:	2178      	mov	r1, #120
60103004:	fa59f000 	bl	601034ba <PROGRAM+0x3312>
60103008:	4a06      	ldr	r2, [pc, #24]	(60103024 <PROGRAM+0x2e7c>)
6010300a:	2070      	mov	r0, #112
6010300c:	2178      	mov	r1, #120
6010300e:	fa54f000 	bl	601034ba <PROGRAM+0x3312>
60103012:	bc10      	pop	{r4}
60103014:	bc01      	pop	{r0}
60103016:	4700      	bx	r0
60103018:	3698      	add	r6, #152
6010301a:	6010      	str	r0, [r2, #0]
6010301c:	6d98      	ldr	r0, [r3, #88]
6010301e:	6010      	str	r0, [r2, #0]
60103020:	6d6c      	ldr	r4, [r5, #84]
60103022:	6010      	str	r0, [r2, #0]
60103024:	6d8e      	ldr	r6, [r1, #88]
60103026:	6010      	str	r0, [r2, #0]

60103028 <display_progress_bar>:
60103028:	b5f0      	push	{r4, r5, r6, r7, lr}
6010302a:	1c0c      	mov	r4, r1		(add r4, r1, #0)
6010302c:	3c01      	sub	r4, #1
6010302e:	1e45      	sub	r5, r0, #1
60103030:	b082      	sub	sp, #8
60103032:	4b27      	ldr	r3, [pc, #156]	(601030d0 <PROGRAM+0x2f28>)
60103034:	2070      	mov	r0, #112
60103036:	1c21      	mov	r1, r4		(add r1, r4, #0)
60103038:	fa3ef000 	bl	601034b8 <PROGRAM+0x3310>
6010303c:	42a5      	cmp	r5, r4
6010303e:	d101      	bne	60103044 <display_progress_bar+0x1c>
60103040:	2379      	mov	r3, #121
60103042:	e002      	b	6010304a <display_progress_bar+0x22>
60103044:	1c03      	mov	r3, r0		(add r3, r0, #0)
60103046:	436b      	mul	r3, r5
60103048:	330a      	add	r3, #10
6010304a:	2500      	mov	r5, #0
6010304c:	4c21      	ldr	r4, [pc, #132]	(601030d4 <PROGRAM+0x2f2c>)
6010304e:	9500      	str	r5, [sp, #0]
60103050:	9301      	str	r3, [sp, #4]
60103052:	207f      	mov	r0, #127
60103054:	2100      	mov	r1, #0
60103056:	227f      	mov	r2, #127
60103058:	2380      	mov	r3, #128
6010305a:	fa2ef000 	bl	601034ba <PROGRAM+0x3312>
6010305e:	9500      	str	r5, [sp, #0]
60103060:	207e      	mov	r0, #126
60103062:	2100      	mov	r1, #0
60103064:	227e      	mov	r2, #126
60103066:	2380      	mov	r3, #128
60103068:	fa27f000 	bl	601034ba <PROGRAM+0x3312>
6010306c:	9500      	str	r5, [sp, #0]
6010306e:	207d      	mov	r0, #125
60103070:	2100      	mov	r1, #0
60103072:	227d      	mov	r2, #125
60103074:	2380      	mov	r3, #128
60103076:	fa20f000 	bl	601034ba <PROGRAM+0x3312>
6010307a:	2301      	mov	r3, #1
6010307c:	9300      	str	r3, [sp, #0]
6010307e:	207c      	mov	r0, #124
60103080:	210a      	mov	r1, #10
60103082:	227c      	mov	r2, #124
60103084:	237f      	mov	r3, #127
60103086:	fa18f000 	bl	601034ba <PROGRAM+0x3312>
6010308a:	9e01      	ldr	r6, [sp, #4]
6010308c:	9f01      	ldr	r7, [sp, #4]
6010308e:	3601      	add	r6, #1
60103090:	3705      	add	r7, #5
60103092:	9500      	str	r5, [sp, #0]
60103094:	1c31      	mov	r1, r6		(add r1, r6, #0)
60103096:	1c3b      	mov	r3, r7		(add r3, r7, #0)
60103098:	207c      	mov	r0, #124
6010309a:	227c      	mov	r2, #124
6010309c:	fa0df000 	bl	601034ba <PROGRAM+0x3312>
601030a0:	2301      	mov	r3, #1
601030a2:	1c31      	mov	r1, r6		(add r1, r6, #0)
601030a4:	9300      	str	r3, [sp, #0]
601030a6:	207e      	mov	r0, #126
601030a8:	1c3b      	mov	r3, r7		(add r3, r7, #0)
601030aa:	227e      	mov	r2, #126
601030ac:	fa05f000 	bl	601034ba <PROGRAM+0x3312>
601030b0:	9901      	ldr	r1, [sp, #4]
601030b2:	4c09      	ldr	r4, [pc, #36]	(601030d8 <PROGRAM+0x2f30>)
601030b4:	207d      	mov	r0, #125
601030b6:	2201      	mov	r2, #1
601030b8:	f9fff000 	bl	601034ba <PROGRAM+0x3312>
601030bc:	9901      	ldr	r1, [sp, #4]
601030be:	207d      	mov	r0, #125
601030c0:	3106      	add	r1, #6
601030c2:	2201      	mov	r2, #1
601030c4:	f9f9f000 	bl	601034ba <PROGRAM+0x3312>
601030c8:	b002      	add	sp, #8
601030ca:	bcf0      	pop	{r4, r5, r6, r7}
601030cc:	bc01      	pop	{r0}
601030ce:	4700      	bx	r0
601030d0:	435d      	mul	r5, r3
601030d2:	6010      	str	r0, [r2, #0]
601030d4:	3530      	add	r5, #48
601030d6:	6010      	str	r0, [r2, #0]
601030d8:	3670      	add	r6, #112
601030da:	6010      	str	r0, [r2, #0]

601030dc <ShowGraphMenu>:
601030dc:	b5f0      	push	{r4, r5, r6, r7, lr}
601030de:	b081      	sub	sp, #4
601030e0:	9100      	str	r1, [sp, #0]
601030e2:	4b78      	ldr	r3, [pc, #480]	(601032c4 <PROGRAM+0x311c>)
601030e4:	1c07      	mov	r7, r0		(add r7, r0, #0)
601030e6:	2004      	mov	r0, #4
601030e8:	f9e6f000 	bl	601034b8 <PROGRAM+0x3310>
601030ec:	2001      	mov	r0, #1
601030ee:	feaff7ff 	bl	60102e50 <GraphIncLayer>
601030f2:	4875      	ldr	r0, [pc, #468]	(601032c8 <PROGRAM+0x3120>)
601030f4:	febef7ff 	bl	60102e74 <build_layer_string>
601030f8:	4c74      	ldr	r4, [pc, #464]	(601032cc <PROGRAM+0x3124>)
601030fa:	6823      	ldr	r3, [r4, #0]
601030fc:	6899      	ldr	r1, [r3, #8]
601030fe:	688b      	ldr	r3, [r1, #8]
60103100:	1c06      	mov	r6, r0		(add r6, r0, #0)
60103102:	1e58      	sub	r0, r3, #1
60103104:	6088      	str	r0, [r1, #8]
60103106:	2800      	cmp	r0, #0
60103108:	da1c      	bge	60103144 <ShowGraphMenu+0x68>
6010310a:	698b      	ldr	r3, [r1, #24]
6010310c:	4298      	cmp	r0, r3
6010310e:	db0d      	blt	6010312c <ShowGraphMenu+0x50>
60103110:	680a      	ldr	r2, [r1, #0]
60103112:	230c      	mov	r3, #12
60103114:	7013      	strb	r3, [r2, #0]
60103116:	6823      	ldr	r3, [r4, #0]
60103118:	6899      	ldr	r1, [r3, #8]
6010311a:	680a      	ldr	r2, [r1, #0]
6010311c:	7813      	ldrb	r3, [r2, #0]
6010311e:	2b0a      	cmp	r3, #10
60103120:	d002      	beq	60103128 <ShowGraphMenu+0x4c>
60103122:	1c53      	add	r3, r2, #1
60103124:	600b      	str	r3, [r1, #0]
60103126:	e015      	b	60103154 <ShowGraphMenu+0x78>
60103128:	200a      	mov	r0, #10
6010312a:	e000      	b	6010312e <ShowGraphMenu+0x52>
6010312c:	200c      	mov	r0, #12
6010312e:	4b68      	ldr	r3, [pc, #416]	(601032d0 <PROGRAM+0x3128>)
60103130:	f9c2f000 	bl	601034b8 <PROGRAM+0x3310>
60103134:	e00e      	b	60103154 <ShowGraphMenu+0x78>
60103136:	4864      	ldr	r0, [pc, #400]	(601032c8 <PROGRAM+0x3120>)
60103138:	fe9cf7ff 	bl	60102e74 <build_layer_string>
6010313c:	b001      	add	sp, #4
6010313e:	bcf0      	pop	{r4, r5, r6, r7}
60103140:	bc01      	pop	{r0}
60103142:	4700      	bx	r0
60103144:	680a      	ldr	r2, [r1, #0]
60103146:	230c      	mov	r3, #12
60103148:	7013      	strb	r3, [r2, #0]
6010314a:	6823      	ldr	r3, [r4, #0]
6010314c:	689a      	ldr	r2, [r3, #8]
6010314e:	6813      	ldr	r3, [r2, #0]
60103150:	3301      	add	r3, #1
60103152:	6013      	str	r3, [r2, #0]
60103154:	4b5f      	ldr	r3, [pc, #380]	(601032d4 <PROGRAM+0x312c>)
60103156:	f9aff000 	bl	601034b8 <PROGRAM+0x3310>
6010315a:	4d5f      	ldr	r5, [pc, #380]	(601032d8 <PROGRAM+0x3130>)
6010315c:	00b4      	lsl	r4, r6, #2
6010315e:	5961      	ldr	r1, [r4, r5]
60103160:	4859      	ldr	r0, [pc, #356]	(601032c8 <PROGRAM+0x3120>)
60103162:	fec7f7ff 	bl	60102ef4 <display_layer>
60103166:	5962      	ldr	r2, [r4, r5]
60103168:	0053      	lsl	r3, r2, #1
6010316a:	189b      	add	r3, r3, r2
6010316c:	009b      	lsl	r3, r3, #2
6010316e:	19db      	add	r3, r3, r7
60103170:	3b0c      	sub	r3, #12
60103172:	6818      	ldr	r0, [r3, #0]
60103174:	feeaf7ff 	bl	60102f4c <display_menu_item_text>
60103178:	5962      	ldr	r2, [r4, r5]
6010317a:	0053      	lsl	r3, r2, #1
6010317c:	189b      	add	r3, r3, r2
6010317e:	009b      	lsl	r3, r3, #2
60103180:	19db      	add	r3, r3, r7
60103182:	3b0c      	sub	r3, #12
60103184:	6858      	ldr	r0, [r3, #4]
60103186:	ff0df7ff 	bl	60102fa4 <display_image>
6010318a:	ff31f7ff 	bl	60102ff0 <display_selection_bar>
6010318e:	5960      	ldr	r0, [r4, r5]
60103190:	9900      	ldr	r1, [sp, #0]
60103192:	ff49f7ff 	bl	60103028 <display_progress_bar>
60103196:	4b51      	ldr	r3, [pc, #324]	(601032dc <PROGRAM+0x3134>)
60103198:	f98ef000 	bl	601034b8 <PROGRAM+0x3310>
6010319c:	2882      	cmp	r0, #130
6010319e:	d02d      	beq	601031fc <ShowGraphMenu+0x120>
601031a0:	2882      	cmp	r0, #130
601031a2:	dc08      	bgt	601031b6 <ShowGraphMenu+0xda>
601031a4:	2880      	cmp	r0, #128
601031a6:	d012      	beq	601031ce <ShowGraphMenu+0xf2>
601031a8:	2880      	cmp	r0, #128
601031aa:	dc1d      	bgt	601031e8 <ShowGraphMenu+0x10c>
601031ac:	1c03      	mov	r3, r0		(add r3, r0, #0)
601031ae:	3b31      	sub	r3, #49
601031b0:	2b08      	cmp	r3, #8
601031b2:	d847      	bhi	60103244 <ShowGraphMenu+0x168>
601031b4:	e033      	b	6010321e <ShowGraphMenu+0x142>
601031b6:	2884      	cmp	r0, #132
601031b8:	d006      	beq	601031c8 <ShowGraphMenu+0xec>
601031ba:	2884      	cmp	r0, #132
601031bc:	db07      	blt	601031ce <ShowGraphMenu+0xf2>
601031be:	2886      	cmp	r0, #134
601031c0:	d012      	beq	601031e8 <ShowGraphMenu+0x10c>
601031c2:	2887      	cmp	r0, #135
601031c4:	d13e      	bne	60103244 <ShowGraphMenu+0x168>
601031c6:	e019      	b	601031fc <ShowGraphMenu+0x120>
601031c8:	1961      	add	r1, r4, r5
601031ca:	1c32      	mov	r2, r6		(add r2, r6, #0)
601031cc:	e024      	b	60103218 <ShowGraphMenu+0x13c>
601031ce:	4842      	ldr	r0, [pc, #264]	(601032d8 <PROGRAM+0x3130>)
601031d0:	00b1      	lsl	r1, r6, #2
601031d2:	580a      	ldr	r2, [r1, r0]
601031d4:	0053      	lsl	r3, r2, #1
601031d6:	189b      	add	r3, r3, r2
601031d8:	009b      	lsl	r3, r3, #2
601031da:	19db      	add	r3, r3, r7
601031dc:	3b0c      	sub	r3, #12
601031de:	689b      	ldr	r3, [r3, #8]
601031e0:	2b00      	cmp	r3, #0
601031e2:	d132      	bne	6010324a <ShowGraphMenu+0x16e>
601031e4:	500b      	str	r3, [r1, r0]
601031e6:	e030      	b	6010324a <ShowGraphMenu+0x16e>
601031e8:	493b      	ldr	r1, [pc, #236]	(601032d8 <PROGRAM+0x3130>)
601031ea:	00b2      	lsl	r2, r6, #2
601031ec:	5853      	ldr	r3, [r2, r1]
601031ee:	2b01      	cmp	r3, #1
601031f0:	dd01      	ble	601031f6 <ShowGraphMenu+0x11a>
601031f2:	3b01      	sub	r3, #1
601031f4:	e009      	b	6010320a <ShowGraphMenu+0x12e>
601031f6:	9800      	ldr	r0, [sp, #0]
601031f8:	5050      	str	r0, [r2, r1]
601031fa:	e7ae      	b	6010315a <ShowGraphMenu+0x7e>
601031fc:	4936      	ldr	r1, [pc, #216]	(601032d8 <PROGRAM+0x3130>)
601031fe:	00b2      	lsl	r2, r6, #2
60103200:	5853      	ldr	r3, [r2, r1]
60103202:	9800      	ldr	r0, [sp, #0]
60103204:	4283      	cmp	r3, r0
60103206:	da02      	bge	6010320e <ShowGraphMenu+0x132>
60103208:	3301      	add	r3, #1
6010320a:	5053      	str	r3, [r2, r1]
6010320c:	e7a5      	b	6010315a <ShowGraphMenu+0x7e>
6010320e:	2301      	mov	r3, #1
60103210:	e7fb      	b	6010320a <ShowGraphMenu+0x12e>
60103212:	2300      	mov	r3, #0
60103214:	c108      	stmia	r1!,{r3}
60103216:	3201      	add	r2, #1
60103218:	2a09      	cmp	r2, #9
6010321a:	ddfa      	ble	60103212 <ShowGraphMenu+0x136>
6010321c:	e015      	b	6010324a <ShowGraphMenu+0x16e>
6010321e:	3830      	sub	r0, #48
60103220:	2800      	cmp	r0, #0
60103222:	dd0f      	ble	60103244 <ShowGraphMenu+0x168>
60103224:	9b00      	ldr	r3, [sp, #0]
60103226:	4298      	cmp	r0, r3
60103228:	dc0c      	bgt	60103244 <ShowGraphMenu+0x168>
6010322a:	0043      	lsl	r3, r0, #1
6010322c:	181b      	add	r3, r3, r0
6010322e:	009b      	lsl	r3, r3, #2
60103230:	4929      	ldr	r1, [pc, #164]	(601032d8 <PROGRAM+0x3130>)
60103232:	19db      	add	r3, r3, r7
60103234:	00b2      	lsl	r2, r6, #2
60103236:	3b0c      	sub	r3, #12
60103238:	5050      	str	r0, [r2, r1]
6010323a:	6898      	ldr	r0, [r3, #8]
6010323c:	2800      	cmp	r0, #0
6010323e:	d104      	bne	6010324a <ShowGraphMenu+0x16e>
60103240:	5050      	str	r0, [r2, r1]
60103242:	e002      	b	6010324a <ShowGraphMenu+0x16e>
60103244:	fb92f7ff 	bl	6010296c <errorbeep>
60103248:	e787      	b	6010315a <ShowGraphMenu+0x7e>
6010324a:	4a23      	ldr	r2, [pc, #140]	(601032d8 <PROGRAM+0x3130>)
6010324c:	00b3      	lsl	r3, r6, #2
6010324e:	589a      	ldr	r2, [r3, r2]
60103250:	2a00      	cmp	r2, #0
60103252:	d100      	bne	60103256 <ShowGraphMenu+0x17a>
60103254:	e76f      	b	60103136 <ShowGraphMenu+0x5a>
60103256:	0053      	lsl	r3, r2, #1
60103258:	189b      	add	r3, r3, r2
6010325a:	009b      	lsl	r3, r3, #2
6010325c:	19db      	add	r3, r3, r7
6010325e:	3b0c      	sub	r3, #12
60103260:	689b      	ldr	r3, [r3, #8]
60103262:	f929f000 	bl	601034b8 <PROGRAM+0x3310>
60103266:	4c19      	ldr	r4, [pc, #100]	(601032cc <PROGRAM+0x3124>)
60103268:	6823      	ldr	r3, [r4, #0]
6010326a:	6899      	ldr	r1, [r3, #8]
6010326c:	688b      	ldr	r3, [r1, #8]
6010326e:	1e58      	sub	r0, r3, #1
60103270:	6088      	str	r0, [r1, #8]
60103272:	2800      	cmp	r0, #0
60103274:	da15      	bge	601032a2 <ShowGraphMenu+0x1c6>
60103276:	698b      	ldr	r3, [r1, #24]
60103278:	4298      	cmp	r0, r3
6010327a:	db0d      	blt	60103298 <ShowGraphMenu+0x1bc>
6010327c:	680a      	ldr	r2, [r1, #0]
6010327e:	230c      	mov	r3, #12
60103280:	7013      	strb	r3, [r2, #0]
60103282:	6823      	ldr	r3, [r4, #0]
60103284:	6899      	ldr	r1, [r3, #8]
60103286:	680a      	ldr	r2, [r1, #0]
60103288:	7813      	ldrb	r3, [r2, #0]
6010328a:	2b0a      	cmp	r3, #10
6010328c:	d002      	beq	60103294 <ShowGraphMenu+0x1b8>
6010328e:	1c53      	add	r3, r2, #1
60103290:	600b      	str	r3, [r1, #0]
60103292:	e00e      	b	601032b2 <ShowGraphMenu+0x1d6>
60103294:	200a      	mov	r0, #10
60103296:	e000      	b	6010329a <ShowGraphMenu+0x1be>
60103298:	200c      	mov	r0, #12
6010329a:	4b0d      	ldr	r3, [pc, #52]	(601032d0 <PROGRAM+0x3128>)
6010329c:	f90cf000 	bl	601034b8 <PROGRAM+0x3310>
601032a0:	e007      	b	601032b2 <ShowGraphMenu+0x1d6>
601032a2:	680a      	ldr	r2, [r1, #0]
601032a4:	230c      	mov	r3, #12
601032a6:	7013      	strb	r3, [r2, #0]
601032a8:	6823      	ldr	r3, [r4, #0]
601032aa:	689a      	ldr	r2, [r3, #8]
601032ac:	6813      	ldr	r3, [r2, #0]
601032ae:	3301      	add	r3, #1
601032b0:	6013      	str	r3, [r2, #0]
601032b2:	4b08      	ldr	r3, [pc, #32]	(601032d4 <PROGRAM+0x312c>)
601032b4:	f900f000 	bl	601034b8 <PROGRAM+0x3310>
601032b8:	2004      	mov	r0, #4
601032ba:	4b02      	ldr	r3, [pc, #8]	(601032c4 <PROGRAM+0x311c>)
601032bc:	f8fcf000 	bl	601034b8 <PROGRAM+0x3310>
601032c0:	e74b      	b	6010315a <ShowGraphMenu+0x7e>
601032c2:	0000      	lsl	r0, r0, #0
601032c4:	3510      	add	r5, #16
601032c6:	6010      	str	r0, [r2, #0]
601032c8:	2a03      	cmp	r2, #3
601032ca:	6200      	str	r0, [r0, #32]
601032cc:	0414      	lsl	r4, r2, #16
601032ce:	6200      	str	r0, [r0, #32]
601032d0:	38e0      	sub	r0, #224
601032d2:	6010      	str	r0, [r2, #0]
601032d4:	3618      	add	r6, #24
601032d6:	6010      	str	r0, [r2, #0]
601032d8:	2a40      	cmp	r2, #64
601032da:	6200      	str	r0, [r0, #32]
601032dc:	2215      	mov	r2, #21
601032de:	6010      	str	r0, [r2, #0]

601032e0 <graph_menu_sel_set_value>:
601032e0:	b570      	push	{r4, r5, r6, lr}
601032e2:	1c06      	mov	r6, r0		(add r6, r0, #0)
601032e4:	4d10      	ldr	r5, [pc, #64]	(60103328 <PROGRAM+0x3180>)
601032e6:	00b4      	lsl	r4, r6, #2
601032e8:	1c10      	mov	r0, r2		(add r0, r2, #0)
601032ea:	1c1a      	mov	r2, r3		(add r2, r3, #0)
601032ec:	5963      	ldr	r3, [r4, r5]
601032ee:	00db      	lsl	r3, r3, #3
601032f0:	185b      	add	r3, r3, r1
601032f2:	3b08      	sub	r3, #8
601032f4:	6859      	ldr	r1, [r3, #4]
601032f6:	1c4b      	add	r3, r1, #1
601032f8:	d102      	bne	60103300 <graph_menu_sel_set_value+0x20>
601032fa:	2300      	mov	r3, #0
601032fc:	5163      	str	r3, [r4, r5]
601032fe:	e006      	b	6010330e <graph_menu_sel_set_value+0x2e>
60103300:	0783      	lsl	r3, r0, #30
60103302:	d503      	bpl	6010330c <graph_menu_sel_set_value+0x2c>
60103304:	6813      	ldr	r3, [r2, #0]
60103306:	404b      	eor	r3, r1
60103308:	6013      	str	r3, [r2, #0]
6010330a:	e000      	b	6010330e <graph_menu_sel_set_value+0x2e>
6010330c:	6011      	str	r1, [r2, #0]
6010330e:	0743      	lsl	r3, r0, #29
60103310:	d506      	bpl	60103320 <graph_menu_sel_set_value+0x40>
60103312:	2302      	mov	r3, #2
60103314:	1c01      	mov	r1, r0		(add r1, r0, #0)
60103316:	4019      	and	r1, r3
60103318:	d102      	bne	60103320 <graph_menu_sel_set_value+0x40>
6010331a:	4a03      	ldr	r2, [pc, #12]	(60103328 <PROGRAM+0x3180>)
6010331c:	00b3      	lsl	r3, r6, #2
6010331e:	5099      	str	r1, [r3, r2]
60103320:	bc70      	pop	{r4, r5, r6}
60103322:	bc01      	pop	{r0}
60103324:	4700      	bx	r0
60103326:	0000      	lsl	r0, r0, #0
60103328:	2a40      	cmp	r2, #64
6010332a:	6200      	str	r0, [r0, #32]

6010332c <ShowGraphSelectionMenu>:
6010332c:	b5f0      	push	{r4, r5, r6, r7, lr}
6010332e:	b083      	sub	sp, #12
60103330:	9201      	str	r2, [sp, #4]
60103332:	9002      	str	r0, [sp, #8]
60103334:	9300      	str	r3, [sp, #0]
60103336:	2004      	mov	r0, #4
60103338:	4b56      	ldr	r3, [pc, #344]	(60103494 <PROGRAM+0x32ec>)
6010333a:	1c0f      	mov	r7, r1		(add r7, r1, #0)
6010333c:	f8bcf000 	bl	601034b8 <PROGRAM+0x3310>
60103340:	2001      	mov	r0, #1
60103342:	fd85f7ff 	bl	60102e50 <GraphIncLayer>
60103346:	4854      	ldr	r0, [pc, #336]	(60103498 <PROGRAM+0x32f0>)
60103348:	fd94f7ff 	bl	60102e74 <build_layer_string>
6010334c:	4c53      	ldr	r4, [pc, #332]	(6010349c <PROGRAM+0x32f4>)
6010334e:	6823      	ldr	r3, [r4, #0]
60103350:	6899      	ldr	r1, [r3, #8]
60103352:	688b      	ldr	r3, [r1, #8]
60103354:	1c06      	mov	r6, r0		(add r6, r0, #0)
60103356:	1e58      	sub	r0, r3, #1
60103358:	6088      	str	r0, [r1, #8]
6010335a:	2800      	cmp	r0, #0
6010335c:	da15      	bge	6010338a <ShowGraphSelectionMenu+0x5e>
6010335e:	698b      	ldr	r3, [r1, #24]
60103360:	4298      	cmp	r0, r3
60103362:	db0d      	blt	60103380 <ShowGraphSelectionMenu+0x54>
60103364:	680a      	ldr	r2, [r1, #0]
60103366:	230c      	mov	r3, #12
60103368:	7013      	strb	r3, [r2, #0]
6010336a:	6823      	ldr	r3, [r4, #0]
6010336c:	6899      	ldr	r1, [r3, #8]
6010336e:	680a      	ldr	r2, [r1, #0]
60103370:	7813      	ldrb	r3, [r2, #0]
60103372:	2b0a      	cmp	r3, #10
60103374:	d002      	beq	6010337c <ShowGraphSelectionMenu+0x50>
60103376:	1c53      	add	r3, r2, #1
60103378:	600b      	str	r3, [r1, #0]
6010337a:	e00e      	b	6010339a <ShowGraphSelectionMenu+0x6e>
6010337c:	200a      	mov	r0, #10
6010337e:	e000      	b	60103382 <ShowGraphSelectionMenu+0x56>
60103380:	200c      	mov	r0, #12
60103382:	4b47      	ldr	r3, [pc, #284]	(601034a0 <PROGRAM+0x32f8>)
60103384:	f898f000 	bl	601034b8 <PROGRAM+0x3310>
60103388:	e007      	b	6010339a <ShowGraphSelectionMenu+0x6e>
6010338a:	680a      	ldr	r2, [r1, #0]
6010338c:	230c      	mov	r3, #12
6010338e:	7013      	strb	r3, [r2, #0]
60103390:	6823      	ldr	r3, [r4, #0]
60103392:	689a      	ldr	r2, [r3, #8]
60103394:	6813      	ldr	r3, [r2, #0]
60103396:	3301      	add	r3, #1
60103398:	6013      	str	r3, [r2, #0]
6010339a:	4b42      	ldr	r3, [pc, #264]	(601034a4 <PROGRAM+0x32fc>)
6010339c:	f88cf000 	bl	601034b8 <PROGRAM+0x3310>
601033a0:	4d41      	ldr	r5, [pc, #260]	(601034a8 <PROGRAM+0x3300>)
601033a2:	00b4      	lsl	r4, r6, #2
601033a4:	5961      	ldr	r1, [r4, r5]
601033a6:	483c      	ldr	r0, [pc, #240]	(60103498 <PROGRAM+0x32f0>)
601033a8:	fda4f7ff 	bl	60102ef4 <display_layer>
601033ac:	5963      	ldr	r3, [r4, r5]
601033ae:	9902      	ldr	r1, [sp, #8]
601033b0:	00db      	lsl	r3, r3, #3
601033b2:	185b      	add	r3, r3, r1
601033b4:	3b08      	sub	r3, #8
601033b6:	6818      	ldr	r0, [r3, #0]
601033b8:	fdc8f7ff 	bl	60102f4c <display_menu_item_text>
601033bc:	5963      	ldr	r3, [r4, r5]
601033be:	9a02      	ldr	r2, [sp, #8]
601033c0:	00db      	lsl	r3, r3, #3
601033c2:	189b      	add	r3, r3, r2
601033c4:	3b08      	sub	r3, #8
601033c6:	685b      	ldr	r3, [r3, #4]
601033c8:	1c59      	add	r1, r3, #1
601033ca:	d101      	bne	601033d0 <ShowGraphSelectionMenu+0xa4>
601033cc:	2000      	mov	r0, #0
601033ce:	e00c      	b	601033ea <ShowGraphSelectionMenu+0xbe>
601033d0:	9900      	ldr	r1, [sp, #0]
601033d2:	680a      	ldr	r2, [r1, #0]
601033d4:	9901      	ldr	r1, [sp, #4]
601033d6:	0789      	lsl	r1, r1, #30
601033d8:	d502      	bpl	601033e0 <ShowGraphSelectionMenu+0xb4>
601033da:	4213      	tst	r3, r2
601033dc:	d004      	beq	601033e8 <ShowGraphSelectionMenu+0xbc>
601033de:	e001      	b	601033e4 <ShowGraphSelectionMenu+0xb8>
601033e0:	4293      	cmp	r3, r2
601033e2:	d101      	bne	601033e8 <ShowGraphSelectionMenu+0xbc>
601033e4:	4831      	ldr	r0, [pc, #196]	(601034ac <PROGRAM+0x3304>)
601033e6:	e000      	b	601033ea <ShowGraphSelectionMenu+0xbe>
601033e8:	4831      	ldr	r0, [pc, #196]	(601034b0 <PROGRAM+0x3308>)
601033ea:	fddbf7ff 	bl	60102fa4 <display_image>
601033ee:	fdfff7ff 	bl	60102ff0 <display_selection_bar>
601033f2:	4d2d      	ldr	r5, [pc, #180]	(601034a8 <PROGRAM+0x3300>)
601033f4:	00b4      	lsl	r4, r6, #2
601033f6:	5960      	ldr	r0, [r4, r5]
601033f8:	1c39      	mov	r1, r7		(add r1, r7, #0)
601033fa:	fe15f7ff 	bl	60103028 <display_progress_bar>
601033fe:	4b2d      	ldr	r3, [pc, #180]	(601034b4 <PROGRAM+0x330c>)
60103400:	f85af000 	bl	601034b8 <PROGRAM+0x3310>
60103404:	2882      	cmp	r0, #130
60103406:	d01c      	beq	60103442 <ShowGraphSelectionMenu+0x116>
60103408:	2882      	cmp	r0, #130
6010340a:	dc08      	bgt	6010341e <ShowGraphSelectionMenu+0xf2>
6010340c:	2880      	cmp	r0, #128
6010340e:	d02d      	beq	6010346c <ShowGraphSelectionMenu+0x140>
60103410:	2880      	cmp	r0, #128
60103412:	dc0d      	bgt	60103430 <ShowGraphSelectionMenu+0x104>
60103414:	1c03      	mov	r3, r0		(add r3, r0, #0)
60103416:	3b31      	sub	r3, #49
60103418:	2b08      	cmp	r3, #8
6010341a:	d82e      	bhi	6010347a <ShowGraphSelectionMenu+0x14e>
6010341c:	e01e      	b	6010345c <ShowGraphSelectionMenu+0x130>
6010341e:	2884      	cmp	r0, #132
60103420:	d019      	beq	60103456 <ShowGraphSelectionMenu+0x12a>
60103422:	2884      	cmp	r0, #132
60103424:	db22      	blt	6010346c <ShowGraphSelectionMenu+0x140>
60103426:	2886      	cmp	r0, #134
60103428:	d002      	beq	60103430 <ShowGraphSelectionMenu+0x104>
6010342a:	2887      	cmp	r0, #135
6010342c:	d125      	bne	6010347a <ShowGraphSelectionMenu+0x14e>
6010342e:	e008      	b	60103442 <ShowGraphSelectionMenu+0x116>
60103430:	491d      	ldr	r1, [pc, #116]	(601034a8 <PROGRAM+0x3300>)
60103432:	00b2      	lsl	r2, r6, #2
60103434:	5853      	ldr	r3, [r2, r1]
60103436:	2b01      	cmp	r3, #1
60103438:	dd01      	ble	6010343e <ShowGraphSelectionMenu+0x112>
6010343a:	3b01      	sub	r3, #1
6010343c:	e007      	b	6010344e <ShowGraphSelectionMenu+0x122>
6010343e:	5057      	str	r7, [r2, r1]
60103440:	e7ae      	b	601033a0 <ShowGraphSelectionMenu+0x74>
60103442:	4919      	ldr	r1, [pc, #100]	(601034a8 <PROGRAM+0x3300>)
60103444:	00b2      	lsl	r2, r6, #2
60103446:	5853      	ldr	r3, [r2, r1]
60103448:	42bb      	cmp	r3, r7
6010344a:	da02      	bge	60103452 <ShowGraphSelectionMenu+0x126>
6010344c:	3301      	add	r3, #1
6010344e:	5053      	str	r3, [r2, r1]
60103450:	e7a6      	b	601033a0 <ShowGraphSelectionMenu+0x74>
60103452:	2301      	mov	r3, #1
60103454:	e7fb      	b	6010344e <ShowGraphSelectionMenu+0x122>
60103456:	2300      	mov	r3, #0
60103458:	5163      	str	r3, [r4, r5]
6010345a:	e011      	b	60103480 <ShowGraphSelectionMenu+0x154>
6010345c:	3830      	sub	r0, #48
6010345e:	2800      	cmp	r0, #0
60103460:	dd0b      	ble	6010347a <ShowGraphSelectionMenu+0x14e>
60103462:	42b8      	cmp	r0, r7
60103464:	dc09      	bgt	6010347a <ShowGraphSelectionMenu+0x14e>
60103466:	4a10      	ldr	r2, [pc, #64]	(601034a8 <PROGRAM+0x3300>)
60103468:	00b3      	lsl	r3, r6, #2
6010346a:	5098      	str	r0, [r3, r2]
6010346c:	1c30      	mov	r0, r6		(add r0, r6, #0)
6010346e:	9902      	ldr	r1, [sp, #8]
60103470:	9a01      	ldr	r2, [sp, #4]
60103472:	9b00      	ldr	r3, [sp, #0]
60103474:	ff34f7ff 	bl	601032e0 <graph_menu_sel_set_value>
60103478:	e002      	b	60103480 <ShowGraphSelectionMenu+0x154>
6010347a:	fa77f7ff 	bl	6010296c <errorbeep>
6010347e:	e78f      	b	601033a0 <ShowGraphSelectionMenu+0x74>
60103480:	4b09      	ldr	r3, [pc, #36]	(601034a8 <PROGRAM+0x3300>)
60103482:	00b2      	lsl	r2, r6, #2
60103484:	58d3      	ldr	r3, [r2, r3]
60103486:	2b00      	cmp	r3, #0
60103488:	d18a      	bne	601033a0 <ShowGraphSelectionMenu+0x74>
6010348a:	b003      	add	sp, #12
6010348c:	bcf0      	pop	{r4, r5, r6, r7}
6010348e:	bc01      	pop	{r0}
60103490:	4700      	bx	r0
60103492:	0000      	lsl	r0, r0, #0
60103494:	3510      	add	r5, #16
60103496:	6010      	str	r0, [r2, #0]
60103498:	2a21      	cmp	r2, #33
6010349a:	6200      	str	r0, [r0, #32]
6010349c:	0414      	lsl	r4, r2, #16
6010349e:	6200      	str	r0, [r0, #32]
601034a0:	38e0      	sub	r0, #224
601034a2:	6010      	str	r0, [r2, #0]
601034a4:	3618      	add	r6, #24
601034a6:	6010      	str	r0, [r2, #0]
601034a8:	2a40      	cmp	r2, #64
601034aa:	6200      	str	r0, [r0, #32]
601034ac:	6cea      	ldr	r2, [r5, #76]
601034ae:	6010      	str	r0, [r2, #0]
601034b0:	6c68      	ldr	r0, [r5, #68]
601034b2:	6010      	str	r0, [r2, #0]
601034b4:	2215      	mov	r2, #21
601034b6:	6010      	str	r0, [r2, #0]
601034b8:	4718      	bx	r3
601034ba:	4720      	bx	r4
601034bc:	4728      	bx	r5
601034be:	4760      	bx	ip

601034c0 <autopowerdown>:
601034c0:	e3a0c005 	mov	ip, #5	; 0x5
601034c4:	eafff329 	b	60100170 <DoJump>

601034c8 <backlight>:
601034c8:	e3a0c006 	mov	ip, #6	; 0x6
601034cc:	eafff327 	b	60100170 <DoJump>

601034d0 <batteryvoltage>:
601034d0:	e3a0c007 	mov	ip, #7	; 0x7
601034d4:	eafff325 	b	60100170 <DoJump>

601034d8 <checktime>:
601034d8:	e3a0c008 	mov	ip, #8	; 0x8
601034dc:	eafff323 	b	60100170 <DoJump>

601034e0 <checkdate>:
601034e0:	e3a0c009 	mov	ip, #9	; 0x9
601034e4:	eafff321 	b	60100170 <DoJump>

601034e8 <comopen>:
601034e8:	e3a0c00a 	mov	ip, #10	; 0xa
601034ec:	eafff31f 	b	60100170 <DoJump>

601034f0 <comclose>:
601034f0:	e3a0c00b 	mov	ip, #11	; 0xb
601034f4:	eafff31d 	b	60100170 <DoJump>

601034f8 <contrast>:
601034f8:	e3a0c00c 	mov	ip, #12	; 0xc
601034fc:	eafff31b 	b	60100170 <DoJump>

60103500 <coreleft>:
60103500:	e3a0c00d 	mov	ip, #13	; 0xd
60103504:	eafff319 	b	60100170 <DoJump>

60103508 <Heap_CoreLeft>:
60103508:	e3a0c00e 	mov	ip, #14	; 0xe
6010350c:	eafff317 	b	60100170 <DoJump>

60103510 <cursor>:
60103510:	e3a0c00f 	mov	ip, #15	; 0xf
60103514:	eafff315 	b	60100170 <DoJump>

60103518 <delay>:
60103518:	e3a0c010 	mov	ip, #16	; 0x10
6010351c:	eafff313 	b	60100170 <DoJump>

60103520 <downloadapplication>:
60103520:	e3a0c011 	mov	ip, #17	; 0x11
60103524:	eafff311 	b	60100170 <DoJump>

60103528 <downpressed>:
60103528:	e3a0c012 	mov	ip, #18	; 0x12
6010352c:	eafff30f 	b	60100170 <DoJump>

60103530 <drawline>:
60103530:	e3a0c013 	mov	ip, #19	; 0x13
60103534:	eafff30d 	b	60100170 <DoJump>

60103538 <endtimer>:
60103538:	e3a0c014 	mov	ip, #20	; 0x14
6010353c:	eafff30b 	b	60100170 <DoJump>

60103540 <findnext>:
60103540:	e3a0c015 	mov	ip, #21	; 0x15
60103544:	eafff309 	b	60100170 <DoJump>

60103548 <findfirst>:
60103548:	e3a0c016 	mov	ip, #22	; 0x16
6010354c:	eafff307 	b	60100170 <DoJump>

60103550 <flipscreen>:
60103550:	e3a0c017 	mov	ip, #23	; 0x17
60103554:	eafff305 	b	60100170 <DoJump>

60103558 <format>:
60103558:	e3a0c018 	mov	ip, #24	; 0x18
6010355c:	eafff303 	b	60100170 <DoJump>

60103560 <fsize>:
60103560:	e3a0c019 	mov	ip, #25	; 0x19
60103564:	eafff301 	b	60100170 <DoJump>

60103568 <getcom>:
60103568:	e3a0c01a 	mov	ip, #26	; 0x1a
6010356c:	eafff2ff 	b	60100170 <DoJump>

60103570 <getdate>:
60103570:	e3a0c01b 	mov	ip, #27	; 0x1b
60103574:	eafff2fd 	b	60100170 <DoJump>

60103578 <getfontsize>:
60103578:	e3a0c01c 	mov	ip, #28	; 0x1c
6010357c:	eafff2fb 	b	60100170 <DoJump>

60103580 <GetSystemTime>:
60103580:	e3a0c01d 	mov	ip, #29	; 0x1d
60103584:	eafff2f9 	b	60100170 <DoJump>

60103588 <getterminalid>:
60103588:	e3a0c01e 	mov	ip, #30	; 0x1e
6010358c:	eafff2f7 	b	60100170 <DoJump>

60103590 <GetTickCount>:
60103590:	e3a0c01f 	mov	ip, #31	; 0x1f
60103594:	eafff2f5 	b	60100170 <DoJump>

60103598 <gettime>:
60103598:	e3a0c020 	mov	ip, #32	; 0x20
6010359c:	eafff2f3 	b	60100170 <DoJump>

601035a0 <goodreadled>:
601035a0:	e3a0c021 	mov	ip, #33	; 0x21
601035a4:	eafff2f1 	b	60100170 <DoJump>

601035a8 <gotoxy>:
601035a8:	e3a0c022 	mov	ip, #34	; 0x22
601035ac:	eafff2ef 	b	60100170 <DoJump>

601035b0 <idle>:
601035b0:	e3a0c023 	mov	ip, #35	; 0x23
601035b4:	eafff2ed 	b	60100170 <DoJump>

601035b8 <isBuzzerOn>:
601035b8:	e3a0c024 	mov	ip, #36	; 0x24
601035bc:	eafff2eb 	b	60100170 <DoJump>

601035c0 <ischarging>:
601035c0:	e3a0c025 	mov	ip, #37	; 0x25
601035c4:	eafff2e9 	b	60100170 <DoJump>

601035c8 <kbhit>:
601035c8:	e3a0c026 	mov	ip, #38	; 0x26
601035cc:	eafff2e7 	b	60100170 <DoJump>

601035d0 <loaddisplay>:
601035d0:	e3a0c027 	mov	ip, #39	; 0x27
601035d4:	eafff2e5 	b	60100170 <DoJump>

601035d8 <neto_receive>:
601035d8:	e3a0c028 	mov	ip, #40	; 0x28
601035dc:	eafff2e3 	b	60100170 <DoJump>

601035e0 <neto_receive2>:
601035e0:	e3a0c029 	mov	ip, #41	; 0x29
601035e4:	eafff2e1 	b	60100170 <DoJump>

601035e8 <neto_transmit>:
601035e8:	e3a0c02a 	mov	ip, #42	; 0x2a
601035ec:	eafff2df 	b	60100170 <DoJump>

601035f0 <neto_transmit2>:
601035f0:	e3a0c02b 	mov	ip, #43	; 0x2b
601035f4:	eafff2dd 	b	60100170 <DoJump>

601035f8 <powereddown>:
601035f8:	e3a0c02c 	mov	ip, #44	; 0x2c
601035fc:	eafff2db 	b	60100170 <DoJump>

60103600 <printsymbol>:
60103600:	e3a0c02d 	mov	ip, #45	; 0x2d
60103604:	eafff2d9 	b	60100170 <DoJump>

60103608 <putcom>:
60103608:	e3a0c02e 	mov	ip, #46	; 0x2e
6010360c:	eafff2d7 	b	60100170 <DoJump>

60103610 <readbarcode>:
60103610:	e3a0c02f 	mov	ip, #47	; 0x2f
60103614:	eafff2d5 	b	60100170 <DoJump>

60103618 <resetkey>:
60103618:	e3a0c030 	mov	ip, #48	; 0x30
6010361c:	eafff2d3 	b	60100170 <DoJump>

60103620 <resetreceive>:
60103620:	e3a0c031 	mov	ip, #49	; 0x31
60103624:	eafff2d1 	b	60100170 <DoJump>

60103628 <runapplfromfile>:
60103628:	e3a0c032 	mov	ip, #50	; 0x32
6010362c:	eafff2cf 	b	60100170 <DoJump>

60103630 <savedisplay>:
60103630:	e3a0c033 	mov	ip, #51	; 0x33
60103634:	eafff2cd 	b	60100170 <DoJump>

60103638 <scanneroff>:
60103638:	e3a0c034 	mov	ip, #52	; 0x34
6010363c:	eafff2cb 	b	60100170 <DoJump>

60103640 <scannerpower>:
60103640:	e3a0c035 	mov	ip, #53	; 0x35
60103644:	eafff2c9 	b	60100170 <DoJump>

60103648 <set_offset>:
60103648:	e3a0c036 	mov	ip, #54	; 0x36
6010364c:	eafff2c7 	b	60100170 <DoJump>

60103650 <SetAlarm>:
60103650:	e3a0c037 	mov	ip, #55	; 0x37
60103654:	eafff2c5 	b	60100170 <DoJump>

60103658 <setdate>:
60103658:	e3a0c038 	mov	ip, #56	; 0x38
6010365c:	eafff2c3 	b	60100170 <DoJump>

60103660 <setecho>:
60103660:	e3a0c039 	mov	ip, #57	; 0x39
60103664:	eafff2c1 	b	60100170 <DoJump>

60103668 <setfont>:
60103668:	e3a0c03a 	mov	ip, #58	; 0x3a
6010366c:	eafff2bf 	b	60100170 <DoJump>

60103670 <setpixel>:
60103670:	e3a0c03b 	mov	ip, #59	; 0x3b
60103674:	eafff2bd 	b	60100170 <DoJump>

60103678 <SetSystemTime>:
60103678:	e3a0c03c 	mov	ip, #60	; 0x3c
6010367c:	eafff2bb 	b	60100170 <DoJump>

60103680 <setterminalid>:
60103680:	e3a0c03d 	mov	ip, #61	; 0x3d
60103684:	eafff2b9 	b	60100170 <DoJump>

60103688 <SetTickCount>:
60103688:	e3a0c03e 	mov	ip, #62	; 0x3e
6010368c:	eafff2b7 	b	60100170 <DoJump>

60103690 <settime>:
60103690:	e3a0c03f 	mov	ip, #63	; 0x3f
60103694:	eafff2b5 	b	60100170 <DoJump>

60103698 <showpicture>:
60103698:	e3a0c040 	mov	ip, #64	; 0x40
6010369c:	eafff2b3 	b	60100170 <DoJump>

601036a0 <sound>:
601036a0:	e3a0c041 	mov	ip, #65	; 0x41
601036a4:	eafff2b1 	b	60100170 <DoJump>

601036a8 <starttimer>:
601036a8:	e3a0c042 	mov	ip, #66	; 0x42
601036ac:	eafff2af 	b	60100170 <DoJump>

601036b0 <systemsetting>:
601036b0:	e3a0c043 	mov	ip, #67	; 0x43
601036b4:	eafff2ad 	b	60100170 <DoJump>

601036b8 <timervalue>:
601036b8:	e3a0c044 	mov	ip, #68	; 0x44
601036bc:	eafff2ab 	b	60100170 <DoJump>

601036c0 <triggerpressed>:
601036c0:	e3a0c045 	mov	ip, #69	; 0x45
601036c4:	eafff2a9 	b	60100170 <DoJump>

601036c8 <uppressed>:
601036c8:	e3a0c046 	mov	ip, #70	; 0x46
601036cc:	eafff2a7 	b	60100170 <DoJump>

601036d0 <wherex>:
601036d0:	e3a0c047 	mov	ip, #71	; 0x47
601036d4:	eafff2a5 	b	60100170 <DoJump>

601036d8 <wherey>:
601036d8:	e3a0c048 	mov	ip, #72	; 0x48
601036dc:	eafff2a3 	b	60100170 <DoJump>

601036e0 <xmodemreceive>:
601036e0:	e3a0c049 	mov	ip, #73	; 0x49
601036e4:	eafff2a1 	b	60100170 <DoJump>

601036e8 <xmodemtransmit>:
601036e8:	e3a0c04a 	mov	ip, #74	; 0x4a
601036ec:	eafff29f 	b	60100170 <DoJump>

601036f0 <version_os>:
601036f0:	e3a0c04b 	mov	ip, #75	; 0x4b
601036f4:	eafff29d 	b	60100170 <DoJump>

601036f8 <version_rom>:
601036f8:	e3a0c04c 	mov	ip, #76	; 0x4c
601036fc:	eafff29b 	b	60100170 <DoJump>

60103700 <GetOsVersion>:
60103700:	e3a0c04d 	mov	ip, #77	; 0x4d
60103704:	eafff299 	b	60100170 <DoJump>

60103708 <GetBootVersion>:
60103708:	e3a0c04e 	mov	ip, #78	; 0x4e
6010370c:	eafff297 	b	60100170 <DoJump>

60103710 <GetFlashSize>:
60103710:	e3a0c04f 	mov	ip, #79	; 0x4f
60103714:	eafff295 	b	60100170 <DoJump>

60103718 <eraseblock>:
60103718:	e3a0c050 	mov	ip, #80	; 0x50
6010371c:	eafff293 	b	60100170 <DoJump>

60103720 <erasesector>:
60103720:	e3a0c051 	mov	ip, #81	; 0x51
60103724:	eafff291 	b	60100170 <DoJump>

60103728 <programbyte>:
60103728:	e3a0c052 	mov	ip, #82	; 0x52
6010372c:	eafff28f 	b	60100170 <DoJump>

60103730 <programword>:
60103730:	e3a0c053 	mov	ip, #83	; 0x53
60103734:	eafff28d 	b	60100170 <DoJump>

60103738 <programbuffer>:
60103738:	e3a0c054 	mov	ip, #84	; 0x54
6010373c:	eafff28b 	b	60100170 <DoJump>

60103740 <DisableInts>:
60103740:	e3a0c055 	mov	ip, #85	; 0x55
60103744:	eafff289 	b	60100170 <DoJump>

60103748 <EnableInts>:
60103748:	e3a0c056 	mov	ip, #86	; 0x56
6010374c:	eafff287 	b	60100170 <DoJump>

60103750 <InstallHeartbeatHandler>:
60103750:	e3a0c057 	mov	ip, #87	; 0x57
60103754:	eafff285 	b	60100170 <DoJump>

60103758 <RemoveHeartbeatHandler>:
60103758:	e3a0c058 	mov	ip, #88	; 0x58
6010375c:	eafff283 	b	60100170 <DoJump>

60103760 <WaitKey>:
60103760:	e3a0c059 	mov	ip, #89	; 0x59
60103764:	eafff281 	b	60100170 <DoJump>

60103768 <setdatetime>:
60103768:	e3a0c05a 	mov	ip, #90	; 0x5a
6010376c:	eafff27f 	b	60100170 <DoJump>

60103770 <getdatetime>:
60103770:	e3a0c05b 	mov	ip, #91	; 0x5b
60103774:	eafff27d 	b	60100170 <DoJump>

60103778 <lseek>:
60103778:	e3a0c05c 	mov	ip, #92	; 0x5c
6010377c:	eafff27b 	b	60100170 <DoJump>

60103780 <tell>:
60103780:	e3a0c05d 	mov	ip, #93	; 0x5d
60103784:	eafff279 	b	60100170 <DoJump>

60103788 <chsize>:
60103788:	e3a0c05e 	mov	ip, #94	; 0x5e
6010378c:	eafff277 	b	60100170 <DoJump>

60103790 <putstring>:
60103790:	e3a0c061 	mov	ip, #97	; 0x61
60103794:	eafff275 	b	60100170 <DoJump>

60103798 <putnstring>:
60103798:	e3a0c062 	mov	ip, #98	; 0x62
6010379c:	eafff273 	b	60100170 <DoJump>

601037a0 <SoftReset>:
601037a0:	e3a0c063 	mov	ip, #99	; 0x63
601037a4:	eafff271 	b	60100170 <DoJump>

601037a8 <GetTemperature>:
601037a8:	e3a0c064 	mov	ip, #100	; 0x64
601037ac:	eafff26f 	b	60100170 <DoJump>

601037b0 <GetBatteryVoltage>:
601037b0:	e3a0c065 	mov	ip, #101	; 0x65
601037b4:	eafff26d 	b	60100170 <DoJump>

601037b8 <GetBltAddress>:
601037b8:	e3a0c06a 	mov	ip, #106	; 0x6a
601037bc:	eafff26b 	b	60100170 <DoJump>

601037c0 <GetBltPin>:
601037c0:	e3a0c06b 	mov	ip, #107	; 0x6b
601037c4:	eafff269 	b	60100170 <DoJump>

601037c8 <SetBltAddress>:
601037c8:	e3a0c06c 	mov	ip, #108	; 0x6c
601037cc:	eafff267 	b	60100170 <DoJump>

601037d0 <SetBltPin>:
601037d0:	e3a0c06d 	mov	ip, #109	; 0x6d
601037d4:	eafff265 	b	60100170 <DoJump>

601037d8 <GetBltLocalName>:
601037d8:	e3a0c06e 	mov	ip, #110	; 0x6e
601037dc:	eafff263 	b	60100170 <DoJump>

601037e0 <SetBltLocalName>:
601037e0:	e3a0c06f 	mov	ip, #111	; 0x6f
601037e4:	eafff261 	b	60100170 <DoJump>

601037e8 <blt_is_connected>:
601037e8:	e3a0c070 	mov	ip, #112	; 0x70
601037ec:	eafff25f 	b	60100170 <DoJump>

601037f0 <blt_discovery>:
601037f0:	e3a0c071 	mov	ip, #113	; 0x71
601037f4:	eafff25d 	b	60100170 <DoJump>

601037f8 <blt_unpair>:
601037f8:	e3a0c072 	mov	ip, #114	; 0x72
601037fc:	eafff25b 	b	60100170 <DoJump>

60103800 <SetBltPinCallback>:
60103800:	e3a0c073 	mov	ip, #115	; 0x73
60103804:	eafff259 	b	60100170 <DoJump>

60103808 <SetTextColor>:
60103808:	e3a0c074 	mov	ip, #116	; 0x74
6010380c:	eafff257 	b	60100170 <DoJump>

60103810 <SetBackColor>:
60103810:	e3a0c075 	mov	ip, #117	; 0x75
60103814:	eafff255 	b	60100170 <DoJump>

60103818 <secretstring>:
60103818:	e3a0c076 	mov	ip, #118	; 0x76
6010381c:	eafff253 	b	60100170 <DoJump>

60103820 <SetCursorColor>:
60103820:	e3a0c077 	mov	ip, #119	; 0x77
60103824:	eafff251 	b	60100170 <DoJump>

60103828 <ShowBMP>:
60103828:	e3a0c078 	mov	ip, #120	; 0x78
6010382c:	eafff24f 	b	60100170 <DoJump>

60103830 <ShowJPG_File>:
60103830:	e3a0c079 	mov	ip, #121	; 0x79
60103834:	eafff24d 	b	60100170 <DoJump>

60103838 <ShowJPG>:
60103838:	e3a0c07a 	mov	ip, #122	; 0x7a
6010383c:	eafff24b 	b	60100170 <DoJump>

60103840 <BitBlt>:
60103840:	e3a0c07b 	mov	ip, #123	; 0x7b
60103844:	eafff249 	b	60100170 <DoJump>

60103848 <ShowGIF>:
60103848:	e3a0c07c 	mov	ip, #124	; 0x7c
6010384c:	eafff247 	b	60100170 <DoJump>

60103850 <BackLightLvl>:
60103850:	e3a0c07d 	mov	ip, #125	; 0x7d
60103854:	eafff245 	b	60100170 <DoJump>

60103858 <SetBackLightLvl>:
60103858:	e3a0c07e 	mov	ip, #126	; 0x7e
6010385c:	eafff243 	b	60100170 <DoJump>

60103860 <SetAutoBacklight>:
60103860:	e3a0c07f 	mov	ip, #127	; 0x7f
60103864:	eafff241 	b	60100170 <DoJump>

60103868 <SetPrintCharFunction>:
60103868:	e3a0c080 	mov	ip, #128	; 0x80
6010386c:	eafff23f 	b	60100170 <DoJump>

60103870 <PrintChar>:
60103870:	e3a0c081 	mov	ip, #129	; 0x81
60103874:	eafff23d 	b	60100170 <DoJump>

60103878 <ClearDisplay>:
60103878:	e3a0c082 	mov	ip, #130	; 0x82
6010387c:	eafff23b 	b	60100170 <DoJump>

60103880 <ScrollUp>:
60103880:	e3a0c083 	mov	ip, #131	; 0x83
60103884:	eafff239 	b	60100170 <DoJump>

60103888 <FillRect>:
60103888:	e3a0c084 	mov	ip, #132	; 0x84
6010388c:	eafff237 	b	60100170 <DoJump>

60103890 <DrawCircle>:
60103890:	e3a0c085 	mov	ip, #133	; 0x85
60103894:	eafff235 	b	60100170 <DoJump>

60103898 <FillCircle>:
60103898:	e3a0c086 	mov	ip, #134	; 0x86
6010389c:	eafff233 	b	60100170 <DoJump>

601038a0 <DrawEllipse>:
601038a0:	e3a0c087 	mov	ip, #135	; 0x87
601038a4:	eafff231 	b	60100170 <DoJump>

601038a8 <FillEllipse>:
601038a8:	e3a0c088 	mov	ip, #136	; 0x88
601038ac:	eafff22f 	b	60100170 <DoJump>

601038b0 <vibrate>:
601038b0:	e3a0c089 	mov	ip, #137	; 0x89
601038b4:	eafff22d 	b	60100170 <DoJump>

601038b8 <itoa>:
601038b8:	e3a0c08a 	mov	ip, #138	; 0x8a
601038bc:	eafff22b 	b	60100170 <DoJump>

601038c0 <OseComm>:
601038c0:	e3a0c08b 	mov	ip, #139	; 0x8b
601038c4:	eafff229 	b	60100170 <DoJump>

601038c8 <StoreCoverDetection>:
601038c8:	e3a0c08c 	mov	ip, #140	; 0x8c
601038cc:	eafff227 	b	60100170 <DoJump>

601038d0 <set_default_drive>:
601038d0:	e3a0c08d 	mov	ip, #141	; 0x8d
601038d4:	eafff225 	b	60100170 <DoJump>

601038d8 <__srget>:
601038d8:	e3a0c094 	mov	ip, #148	; 0x94
601038dc:	eafff223 	b	60100170 <DoJump>

601038e0 <__swbuf>:
601038e0:	e3a0c095 	mov	ip, #149	; 0x95
601038e4:	eafff221 	b	60100170 <DoJump>

601038e8 <abs>:
601038e8:	e3a0c096 	mov	ip, #150	; 0x96
601038ec:	eafff21f 	b	60100170 <DoJump>

601038f0 <access>:
601038f0:	e3a0c097 	mov	ip, #151	; 0x97
601038f4:	eafff21d 	b	60100170 <DoJump>

601038f8 <argz_add>:
601038f8:	e3a0c098 	mov	ip, #152	; 0x98
601038fc:	eafff21b 	b	60100170 <DoJump>

60103900 <argz_add_sep>:
60103900:	e3a0c099 	mov	ip, #153	; 0x99
60103904:	eafff219 	b	60100170 <DoJump>

60103908 <argz_append>:
60103908:	e3a0c09a 	mov	ip, #154	; 0x9a
6010390c:	eafff217 	b	60100170 <DoJump>

60103910 <argz_count>:
60103910:	e3a0c09b 	mov	ip, #155	; 0x9b
60103914:	eafff215 	b	60100170 <DoJump>

60103918 <argz_create>:
60103918:	e3a0c09c 	mov	ip, #156	; 0x9c
6010391c:	eafff213 	b	60100170 <DoJump>

60103920 <argz_create_sep>:
60103920:	e3a0c09d 	mov	ip, #157	; 0x9d
60103924:	eafff211 	b	60100170 <DoJump>

60103928 <argz_delete>:
60103928:	e3a0c09e 	mov	ip, #158	; 0x9e
6010392c:	eafff20f 	b	60100170 <DoJump>

60103930 <argz_extract>:
60103930:	e3a0c09f 	mov	ip, #159	; 0x9f
60103934:	eafff20d 	b	60100170 <DoJump>

60103938 <argz_insert>:
60103938:	e3a0c0a0 	mov	ip, #160	; 0xa0
6010393c:	eafff20b 	b	60100170 <DoJump>

60103940 <argz_next>:
60103940:	e3a0c0a1 	mov	ip, #161	; 0xa1
60103944:	eafff209 	b	60100170 <DoJump>

60103948 <argz_replace>:
60103948:	e3a0c0a2 	mov	ip, #162	; 0xa2
6010394c:	eafff207 	b	60100170 <DoJump>

60103950 <argz_stringify>:
60103950:	e3a0c0a3 	mov	ip, #163	; 0xa3
60103954:	eafff205 	b	60100170 <DoJump>

60103958 <asctime>:
60103958:	e3a0c0a4 	mov	ip, #164	; 0xa4
6010395c:	eafff203 	b	60100170 <DoJump>

60103960 <asiprintf>:
60103960:	e3a0c0a5 	mov	ip, #165	; 0xa5
60103964:	eafff201 	b	60100170 <DoJump>

60103968 <asprintf>:
60103968:	e3a0c0a6 	mov	ip, #166	; 0xa6
6010396c:	eafff1ff 	b	60100170 <DoJump>

60103970 <atexit>:
60103970:	e3a0c0a7 	mov	ip, #167	; 0xa7
60103974:	eafff1fd 	b	60100170 <DoJump>

60103978 <atof>:
60103978:	e3a0c0a8 	mov	ip, #168	; 0xa8
6010397c:	eafff1fb 	b	60100170 <DoJump>

60103980 <atoff>:
60103980:	e3a0c0a9 	mov	ip, #169	; 0xa9
60103984:	eafff1f9 	b	60100170 <DoJump>

60103988 <atoi>:
60103988:	e3a0c0aa 	mov	ip, #170	; 0xaa
6010398c:	eafff1f7 	b	60100170 <DoJump>

60103990 <atol>:
60103990:	e3a0c0ab 	mov	ip, #171	; 0xab
60103994:	eafff1f5 	b	60100170 <DoJump>

60103998 <atoll>:
60103998:	e3a0c0ac 	mov	ip, #172	; 0xac
6010399c:	eafff1f3 	b	60100170 <DoJump>

601039a0 <bcmp>:
601039a0:	e3a0c0ad 	mov	ip, #173	; 0xad
601039a4:	eafff1f1 	b	60100170 <DoJump>

601039a8 <bcopy>:
601039a8:	e3a0c0ae 	mov	ip, #174	; 0xae
601039ac:	eafff1ef 	b	60100170 <DoJump>

601039b0 <bsearch>:
601039b0:	e3a0c0af 	mov	ip, #175	; 0xaf
601039b4:	eafff1ed 	b	60100170 <DoJump>

601039b8 <btowc>:
601039b8:	e3a0c0b0 	mov	ip, #176	; 0xb0
601039bc:	eafff1eb 	b	60100170 <DoJump>

601039c0 <bzero>:
601039c0:	e3a0c0b1 	mov	ip, #177	; 0xb1
601039c4:	eafff1e9 	b	60100170 <DoJump>

601039c8 <calloc>:
601039c8:	e3a0c0b2 	mov	ip, #178	; 0xb2
601039cc:	eafff1e7 	b	60100170 <DoJump>

601039d0 <cfree>:
601039d0:	e3a0c0b3 	mov	ip, #179	; 0xb3
601039d4:	eafff1e5 	b	60100170 <DoJump>

601039d8 <clearerr>:
601039d8:	e3a0c0b4 	mov	ip, #180	; 0xb4
601039dc:	eafff1e3 	b	60100170 <DoJump>

601039e0 <__errno>:
601039e0:	e3a0c0b5 	mov	ip, #181	; 0xb5
601039e4:	eafff1e1 	b	60100170 <DoJump>

601039e8 <ctime>:
601039e8:	e3a0c0b6 	mov	ip, #182	; 0xb6
601039ec:	eafff1df 	b	60100170 <DoJump>

601039f0 <difftime>:
601039f0:	e3a0c0b7 	mov	ip, #183	; 0xb7
601039f4:	eafff1dd 	b	60100170 <DoJump>

601039f8 <div>:
601039f8:	e3a0c0b8 	mov	ip, #184	; 0xb8
601039fc:	eafff1db 	b	60100170 <DoJump>

60103a00 <exit>:
60103a00:	e3a0c0b9 	mov	ip, #185	; 0xb9
60103a04:	eafff1d9 	b	60100170 <DoJump>

60103a08 <fclose>:
60103a08:	e3a0c0ba 	mov	ip, #186	; 0xba
60103a0c:	eafff1d7 	b	60100170 <DoJump>

60103a10 <fcloseall>:
60103a10:	e3a0c0bb 	mov	ip, #187	; 0xbb
60103a14:	eafff1d5 	b	60100170 <DoJump>

60103a18 <fdopen>:
60103a18:	e3a0c0bc 	mov	ip, #188	; 0xbc
60103a1c:	eafff1d3 	b	60100170 <DoJump>

60103a20 <feof>:
60103a20:	e3a0c0bd 	mov	ip, #189	; 0xbd
60103a24:	eafff1d1 	b	60100170 <DoJump>

60103a28 <ferror>:
60103a28:	e3a0c0be 	mov	ip, #190	; 0xbe
60103a2c:	eafff1cf 	b	60100170 <DoJump>

60103a30 <fflush>:
60103a30:	e3a0c0bf 	mov	ip, #191	; 0xbf
60103a34:	eafff1cd 	b	60100170 <DoJump>

60103a38 <ffs>:
60103a38:	e3a0c0c0 	mov	ip, #192	; 0xc0
60103a3c:	eafff1cb 	b	60100170 <DoJump>

60103a40 <fgetc>:
60103a40:	e3a0c0c1 	mov	ip, #193	; 0xc1
60103a44:	eafff1c9 	b	60100170 <DoJump>

60103a48 <fgetpos>:
60103a48:	e3a0c0c2 	mov	ip, #194	; 0xc2
60103a4c:	eafff1c7 	b	60100170 <DoJump>

60103a50 <fgets>:
60103a50:	e3a0c0c3 	mov	ip, #195	; 0xc3
60103a54:	eafff1c5 	b	60100170 <DoJump>

60103a58 <fileno>:
60103a58:	e3a0c0c4 	mov	ip, #196	; 0xc4
60103a5c:	eafff1c3 	b	60100170 <DoJump>

60103a60 <fiprintf>:
60103a60:	e3a0c0c5 	mov	ip, #197	; 0xc5
60103a64:	eafff1c1 	b	60100170 <DoJump>

60103a68 <fiscanf>:
60103a68:	e3a0c0c6 	mov	ip, #198	; 0xc6
60103a6c:	eafff1bf 	b	60100170 <DoJump>

60103a70 <fopen>:
60103a70:	e3a0c0c7 	mov	ip, #199	; 0xc7
60103a74:	eafff1bd 	b	60100170 <DoJump>

60103a78 <fprintf>:
60103a78:	e3a0c0c8 	mov	ip, #200	; 0xc8
60103a7c:	eafff1bb 	b	60100170 <DoJump>

60103a80 <fputc>:
60103a80:	e3a0c0c9 	mov	ip, #201	; 0xc9
60103a84:	eafff1b9 	b	60100170 <DoJump>

60103a88 <fputs>:
60103a88:	e3a0c0ca 	mov	ip, #202	; 0xca
60103a8c:	eafff1b7 	b	60100170 <DoJump>

60103a90 <fread>:
60103a90:	e3a0c0cb 	mov	ip, #203	; 0xcb
60103a94:	eafff1b5 	b	60100170 <DoJump>

60103a98 <freopen>:
60103a98:	e3a0c0cc 	mov	ip, #204	; 0xcc
60103a9c:	eafff1b3 	b	60100170 <DoJump>

60103aa0 <fscanf>:
60103aa0:	e3a0c0cd 	mov	ip, #205	; 0xcd
60103aa4:	eafff1b1 	b	60100170 <DoJump>

60103aa8 <fseek>:
60103aa8:	e3a0c0ce 	mov	ip, #206	; 0xce
60103aac:	eafff1af 	b	60100170 <DoJump>

60103ab0 <fseeko>:
60103ab0:	e3a0c0cf 	mov	ip, #207	; 0xcf
60103ab4:	eafff1ad 	b	60100170 <DoJump>

60103ab8 <fsetpos>:
60103ab8:	e3a0c0d0 	mov	ip, #208	; 0xd0
60103abc:	eafff1ab 	b	60100170 <DoJump>

60103ac0 <ftell>:
60103ac0:	e3a0c0d1 	mov	ip, #209	; 0xd1
60103ac4:	eafff1a9 	b	60100170 <DoJump>

60103ac8 <ftello>:
60103ac8:	e3a0c0d2 	mov	ip, #210	; 0xd2
60103acc:	eafff1a7 	b	60100170 <DoJump>

60103ad0 <fwrite>:
60103ad0:	e3a0c0d3 	mov	ip, #211	; 0xd3
60103ad4:	eafff1a5 	b	60100170 <DoJump>

60103ad8 <getc>:
60103ad8:	e3a0c0d4 	mov	ip, #212	; 0xd4
60103adc:	eafff1a3 	b	60100170 <DoJump>

60103ae0 <getchar>:
60103ae0:	e3a0c0d5 	mov	ip, #213	; 0xd5
60103ae4:	eafff1a1 	b	60100170 <DoJump>

60103ae8 <getenv>:
60103ae8:	e3a0c0d6 	mov	ip, #214	; 0xd6
60103aec:	eafff19f 	b	60100170 <DoJump>

60103af0 <getopt>:
60103af0:	e3a0c0d7 	mov	ip, #215	; 0xd7
60103af4:	eafff19d 	b	60100170 <DoJump>

60103af8 <gets>:
60103af8:	e3a0c0d8 	mov	ip, #216	; 0xd8
60103afc:	eafff19b 	b	60100170 <DoJump>

60103b00 <getsubopt>:
60103b00:	e3a0c0d9 	mov	ip, #217	; 0xd9
60103b04:	eafff199 	b	60100170 <DoJump>

60103b08 <getw>:
60103b08:	e3a0c0da 	mov	ip, #218	; 0xda
60103b0c:	eafff197 	b	60100170 <DoJump>

60103b10 <gmtime>:
60103b10:	e3a0c0db 	mov	ip, #219	; 0xdb
60103b14:	eafff195 	b	60100170 <DoJump>

60103b18 <hcreate>:
60103b18:	e3a0c0dc 	mov	ip, #220	; 0xdc
60103b1c:	eafff193 	b	60100170 <DoJump>

60103b20 <hdestroy>:
60103b20:	e3a0c0dd 	mov	ip, #221	; 0xdd
60103b24:	eafff191 	b	60100170 <DoJump>

60103b28 <hsearch>:
60103b28:	e3a0c0de 	mov	ip, #222	; 0xde
60103b2c:	eafff18f 	b	60100170 <DoJump>

60103b30 <index>:
60103b30:	e3a0c0df 	mov	ip, #223	; 0xdf
60103b34:	eafff18d 	b	60100170 <DoJump>

60103b38 <iprintf>:
60103b38:	e3a0c0e0 	mov	ip, #224	; 0xe0
60103b3c:	eafff18b 	b	60100170 <DoJump>

60103b40 <isalnum>:
60103b40:	e3a0c0e1 	mov	ip, #225	; 0xe1
60103b44:	eafff189 	b	60100170 <DoJump>

60103b48 <isalpha>:
60103b48:	e3a0c0e2 	mov	ip, #226	; 0xe2
60103b4c:	eafff187 	b	60100170 <DoJump>

60103b50 <isascii>:
60103b50:	e3a0c0e3 	mov	ip, #227	; 0xe3
60103b54:	eafff185 	b	60100170 <DoJump>

60103b58 <isblank>:
60103b58:	e3a0c0e4 	mov	ip, #228	; 0xe4
60103b5c:	eafff183 	b	60100170 <DoJump>

60103b60 <iscanf>:
60103b60:	e3a0c0e5 	mov	ip, #229	; 0xe5
60103b64:	eafff181 	b	60100170 <DoJump>

60103b68 <iscntrl>:
60103b68:	e3a0c0e6 	mov	ip, #230	; 0xe6
60103b6c:	eafff17f 	b	60100170 <DoJump>

60103b70 <isdigit>:
60103b70:	e3a0c0e7 	mov	ip, #231	; 0xe7
60103b74:	eafff17d 	b	60100170 <DoJump>

60103b78 <islower>:
60103b78:	e3a0c0e8 	mov	ip, #232	; 0xe8
60103b7c:	eafff17b 	b	60100170 <DoJump>

60103b80 <isgraph>:
60103b80:	e3a0c0e9 	mov	ip, #233	; 0xe9
60103b84:	eafff179 	b	60100170 <DoJump>

60103b88 <isprint>:
60103b88:	e3a0c0ea 	mov	ip, #234	; 0xea
60103b8c:	eafff177 	b	60100170 <DoJump>

60103b90 <ispunct>:
60103b90:	e3a0c0eb 	mov	ip, #235	; 0xeb
60103b94:	eafff175 	b	60100170 <DoJump>

60103b98 <isspace>:
60103b98:	e3a0c0ec 	mov	ip, #236	; 0xec
60103b9c:	eafff173 	b	60100170 <DoJump>

60103ba0 <isupper>:
60103ba0:	e3a0c0ed 	mov	ip, #237	; 0xed
60103ba4:	eafff171 	b	60100170 <DoJump>

60103ba8 <iswalnum>:
60103ba8:	e3a0c0ee 	mov	ip, #238	; 0xee
60103bac:	eafff16f 	b	60100170 <DoJump>

60103bb0 <iswalpha>:
60103bb0:	e3a0c0ef 	mov	ip, #239	; 0xef
60103bb4:	eafff16d 	b	60100170 <DoJump>

60103bb8 <iswblank>:
60103bb8:	e3a0c0f0 	mov	ip, #240	; 0xf0
60103bbc:	eafff16b 	b	60100170 <DoJump>

60103bc0 <iswcntrl>:
60103bc0:	e3a0c0f1 	mov	ip, #241	; 0xf1
60103bc4:	eafff169 	b	60100170 <DoJump>

60103bc8 <iswctype>:
60103bc8:	e3a0c0f2 	mov	ip, #242	; 0xf2
60103bcc:	eafff167 	b	60100170 <DoJump>

60103bd0 <iswdigit>:
60103bd0:	e3a0c0f3 	mov	ip, #243	; 0xf3
60103bd4:	eafff165 	b	60100170 <DoJump>

60103bd8 <iswgraph>:
60103bd8:	e3a0c0f4 	mov	ip, #244	; 0xf4
60103bdc:	eafff163 	b	60100170 <DoJump>

60103be0 <iswlower>:
60103be0:	e3a0c0f5 	mov	ip, #245	; 0xf5
60103be4:	eafff161 	b	60100170 <DoJump>

60103be8 <iswprint>:
60103be8:	e3a0c0f6 	mov	ip, #246	; 0xf6
60103bec:	eafff15f 	b	60100170 <DoJump>

60103bf0 <iswpunct>:
60103bf0:	e3a0c0f7 	mov	ip, #247	; 0xf7
60103bf4:	eafff15d 	b	60100170 <DoJump>

60103bf8 <iswspace>:
60103bf8:	e3a0c0f8 	mov	ip, #248	; 0xf8
60103bfc:	eafff15b 	b	60100170 <DoJump>

60103c00 <iswupper>:
60103c00:	e3a0c0f9 	mov	ip, #249	; 0xf9
60103c04:	eafff159 	b	60100170 <DoJump>

60103c08 <iswxdigit>:
60103c08:	e3a0c0fa 	mov	ip, #250	; 0xfa
60103c0c:	eafff157 	b	60100170 <DoJump>

60103c10 <isxdigit>:
60103c10:	e3a0c0fb 	mov	ip, #251	; 0xfb
60103c14:	eafff155 	b	60100170 <DoJump>

60103c18 <jrand48>:
60103c18:	e3a0c0fc 	mov	ip, #252	; 0xfc
60103c1c:	eafff153 	b	60100170 <DoJump>

60103c20 <l64a>:
60103c20:	e3a0c0fd 	mov	ip, #253	; 0xfd
60103c24:	eafff151 	b	60100170 <DoJump>

60103c28 <labs>:
60103c28:	e3a0c0fe 	mov	ip, #254	; 0xfe
60103c2c:	eafff14f 	b	60100170 <DoJump>

60103c30 <localtime>:
60103c30:	e3a0c0ff 	mov	ip, #255	; 0xff
60103c34:	eafff14d 	b	60100170 <DoJump>

60103c38 <lcong48>:
60103c38:	e3a0c001 	mov	ip, #1	; 0x1
60103c3c:	eafff14a 	b	6010016c <DoJump2>

60103c40 <ldiv>:
60103c40:	e3a0c002 	mov	ip, #2	; 0x2
60103c44:	eafff148 	b	6010016c <DoJump2>

60103c48 <abort>:
60103c48:	e3a0c003 	mov	ip, #3	; 0x3
60103c4c:	eafff146 	b	6010016c <DoJump2>

60103c50 <alarm>:
60103c50:	e3a0c004 	mov	ip, #4	; 0x4
60103c54:	eafff144 	b	6010016c <DoJump2>

60103c58 <llabs>:
60103c58:	e3a0c005 	mov	ip, #5	; 0x5
60103c5c:	eafff142 	b	6010016c <DoJump2>

60103c60 <lldiv>:
60103c60:	e3a0c006 	mov	ip, #6	; 0x6
60103c64:	eafff140 	b	6010016c <DoJump2>

60103c68 <setlocale>:
60103c68:	e3a0c007 	mov	ip, #7	; 0x7
60103c6c:	eafff13e 	b	6010016c <DoJump2>

60103c70 <localeconv>:
60103c70:	e3a0c008 	mov	ip, #8	; 0x8
60103c74:	eafff13c 	b	6010016c <DoJump2>

60103c78 <memalign>:
60103c78:	e3a0c009 	mov	ip, #9	; 0x9
60103c7c:	eafff13a 	b	6010016c <DoJump2>

60103c80 <malloc>:
60103c80:	e3a0c00a 	mov	ip, #10	; 0xa
60103c84:	eafff138 	b	6010016c <DoJump2>

60103c88 <free>:
60103c88:	e3a0c00b 	mov	ip, #11	; 0xb
60103c8c:	eafff136 	b	6010016c <DoJump2>

60103c90 <mblen>:
60103c90:	e3a0c00c 	mov	ip, #12	; 0xc
60103c94:	eafff134 	b	6010016c <DoJump2>

60103c98 <mbrlen>:
60103c98:	e3a0c00d 	mov	ip, #13	; 0xd
60103c9c:	eafff132 	b	6010016c <DoJump2>

60103ca0 <mbrtowc>:
60103ca0:	e3a0c00e 	mov	ip, #14	; 0xe
60103ca4:	eafff130 	b	6010016c <DoJump2>

60103ca8 <mbsinit>:
60103ca8:	e3a0c00f 	mov	ip, #15	; 0xf
60103cac:	eafff12e 	b	6010016c <DoJump2>

60103cb0 <mbsrtowcs>:
60103cb0:	e3a0c010 	mov	ip, #16	; 0x10
60103cb4:	eafff12c 	b	6010016c <DoJump2>

60103cb8 <mbstowcs>:
60103cb8:	e3a0c011 	mov	ip, #17	; 0x11
60103cbc:	eafff12a 	b	6010016c <DoJump2>

60103cc0 <mbtowc>:
60103cc0:	e3a0c012 	mov	ip, #18	; 0x12
60103cc4:	eafff128 	b	6010016c <DoJump2>

60103cc8 <memccpy>:
60103cc8:	e3a0c013 	mov	ip, #19	; 0x13
60103ccc:	eafff126 	b	6010016c <DoJump2>

60103cd0 <memchr>:
60103cd0:	e3a0c014 	mov	ip, #20	; 0x14
60103cd4:	eafff124 	b	6010016c <DoJump2>

60103cd8 <memcmp>:
60103cd8:	e3a0c015 	mov	ip, #21	; 0x15
60103cdc:	eafff122 	b	6010016c <DoJump2>

60103ce0 <memcpy>:
60103ce0:	e3a0c016 	mov	ip, #22	; 0x16
60103ce4:	eafff120 	b	6010016c <DoJump2>

60103ce8 <memmove>:
60103ce8:	e3a0c017 	mov	ip, #23	; 0x17
60103cec:	eafff11e 	b	6010016c <DoJump2>

60103cf0 <mempcpy>:
60103cf0:	e3a0c018 	mov	ip, #24	; 0x18
60103cf4:	eafff11c 	b	6010016c <DoJump2>

60103cf8 <memset>:
60103cf8:	e3a0c019 	mov	ip, #25	; 0x19
60103cfc:	eafff11a 	b	6010016c <DoJump2>

60103d00 <mkstemp>:
60103d00:	e3a0c01a 	mov	ip, #26	; 0x1a
60103d04:	eafff118 	b	6010016c <DoJump2>

60103d08 <mktemp>:
60103d08:	e3a0c01b 	mov	ip, #27	; 0x1b
60103d0c:	eafff116 	b	6010016c <DoJump2>

60103d10 <mktime>:
60103d10:	e3a0c01c 	mov	ip, #28	; 0x1c
60103d14:	eafff114 	b	6010016c <DoJump2>

60103d18 <mrand48>:
60103d18:	e3a0c01d 	mov	ip, #29	; 0x1d
60103d1c:	eafff112 	b	6010016c <DoJump2>

60103d20 <malloc_usable_size>:
60103d20:	e3a0c01e 	mov	ip, #30	; 0x1e
60103d24:	eafff110 	b	6010016c <DoJump2>

60103d28 <mallinfo>:
60103d28:	e3a0c01f 	mov	ip, #31	; 0x1f
60103d2c:	eafff10e 	b	6010016c <DoJump2>

60103d30 <malloc_stats>:
60103d30:	e3a0c020 	mov	ip, #32	; 0x20
60103d34:	eafff10c 	b	6010016c <DoJump2>

60103d38 <mallopt>:
60103d38:	e3a0c021 	mov	ip, #33	; 0x21
60103d3c:	eafff10a 	b	6010016c <DoJump2>

60103d40 <mstats>:
60103d40:	e3a0c022 	mov	ip, #34	; 0x22
60103d44:	eafff108 	b	6010016c <DoJump2>

60103d48 <malloc_trim>:
60103d48:	e3a0c023 	mov	ip, #35	; 0x23
60103d4c:	eafff106 	b	6010016c <DoJump2>

60103d50 <nl_langinfo>:
60103d50:	e3a0c024 	mov	ip, #36	; 0x24
60103d54:	eafff104 	b	6010016c <DoJump2>

60103d58 <nrand48>:
60103d58:	e3a0c025 	mov	ip, #37	; 0x25
60103d5c:	eafff102 	b	6010016c <DoJump2>

60103d60 <on_exit>:
60103d60:	e3a0c026 	mov	ip, #38	; 0x26
60103d64:	eafff100 	b	6010016c <DoJump2>

60103d68 <perror>:
60103d68:	e3a0c027 	mov	ip, #39	; 0x27
60103d6c:	eafff0fe 	b	6010016c <DoJump2>

60103d70 <printf>:
60103d70:	e3a0c028 	mov	ip, #40	; 0x28
60103d74:	eafff0fc 	b	6010016c <DoJump2>

60103d78 <putc>:
60103d78:	e3a0c029 	mov	ip, #41	; 0x29
60103d7c:	eafff0fa 	b	6010016c <DoJump2>

60103d80 <putc_unlocked>:
60103d80:	e3a0c02a 	mov	ip, #42	; 0x2a
60103d84:	eafff0f8 	b	6010016c <DoJump2>

60103d88 <putchar>:
60103d88:	e3a0c02b 	mov	ip, #43	; 0x2b
60103d8c:	eafff0f6 	b	6010016c <DoJump2>

60103d90 <putchar_unlocked>:
60103d90:	e3a0c02c 	mov	ip, #44	; 0x2c
60103d94:	eafff0f4 	b	6010016c <DoJump2>

60103d98 <putenv>:
60103d98:	e3a0c02d 	mov	ip, #45	; 0x2d
60103d9c:	eafff0f2 	b	6010016c <DoJump2>

60103da0 <puts>:
60103da0:	e3a0c02e 	mov	ip, #46	; 0x2e
60103da4:	eafff0f0 	b	6010016c <DoJump2>

60103da8 <putw>:
60103da8:	e3a0c02f 	mov	ip, #47	; 0x2f
60103dac:	eafff0ee 	b	6010016c <DoJump2>

60103db0 <qsort>:
60103db0:	e3a0c030 	mov	ip, #48	; 0x30
60103db4:	eafff0ec 	b	6010016c <DoJump2>

60103db8 <srand>:
60103db8:	e3a0c031 	mov	ip, #49	; 0x31
60103dbc:	eafff0ea 	b	6010016c <DoJump2>

60103dc0 <rand>:
60103dc0:	e3a0c032 	mov	ip, #50	; 0x32
60103dc4:	eafff0e8 	b	6010016c <DoJump2>

60103dc8 <realloc>:
60103dc8:	e3a0c033 	mov	ip, #51	; 0x33
60103dcc:	eafff0e6 	b	6010016c <DoJump2>

60103dd0 <remove>:
60103dd0:	e3a0c034 	mov	ip, #52	; 0x34
60103dd4:	eafff0e4 	b	6010016c <DoJump2>

60103dd8 <rename>:
60103dd8:	e3a0c035 	mov	ip, #53	; 0x35
60103ddc:	eafff0e2 	b	6010016c <DoJump2>

60103de0 <rewind>:
60103de0:	e3a0c036 	mov	ip, #54	; 0x36
60103de4:	eafff0e0 	b	6010016c <DoJump2>

60103de8 <rindex>:
60103de8:	e3a0c037 	mov	ip, #55	; 0x37
60103dec:	eafff0de 	b	6010016c <DoJump2>

60103df0 <copysign>:
60103df0:	e3a0c038 	mov	ip, #56	; 0x38
60103df4:	eafff0dc 	b	6010016c <DoJump2>

60103df8 <finite>:
60103df8:	e3a0c039 	mov	ip, #57	; 0x39
60103dfc:	eafff0da 	b	6010016c <DoJump2>

60103e00 <frexp>:
60103e00:	e3a0c03a 	mov	ip, #58	; 0x3a
60103e04:	eafff0d8 	b	6010016c <DoJump2>

60103e08 <isinf>:
60103e08:	e3a0c03b 	mov	ip, #59	; 0x3b
60103e0c:	eafff0d6 	b	6010016c <DoJump2>

60103e10 <isnan>:
60103e10:	e3a0c03c 	mov	ip, #60	; 0x3c
60103e14:	eafff0d4 	b	6010016c <DoJump2>

60103e18 <ldexp>:
60103e18:	e3a0c03d 	mov	ip, #61	; 0x3d
60103e1c:	eafff0d2 	b	6010016c <DoJump2>

60103e20 <modf>:
60103e20:	e3a0c03e 	mov	ip, #62	; 0x3e
60103e24:	eafff0d0 	b	6010016c <DoJump2>

60103e28 <scalbn>:
60103e28:	e3a0c03f 	mov	ip, #63	; 0x3f
60103e2c:	eafff0ce 	b	6010016c <DoJump2>

60103e30 <scanf>:
60103e30:	e3a0c040 	mov	ip, #64	; 0x40
60103e34:	eafff0cc 	b	6010016c <DoJump2>

60103e38 <seed48>:
60103e38:	e3a0c041 	mov	ip, #65	; 0x41
60103e3c:	eafff0ca 	b	6010016c <DoJump2>

60103e40 <setbuf>:
60103e40:	e3a0c042 	mov	ip, #66	; 0x42
60103e44:	eafff0c8 	b	6010016c <DoJump2>

60103e48 <setbuffer>:
60103e48:	e3a0c043 	mov	ip, #67	; 0x43
60103e4c:	eafff0c6 	b	6010016c <DoJump2>

60103e50 <setenv>:
60103e50:	e3a0c044 	mov	ip, #68	; 0x44
60103e54:	eafff0c4 	b	6010016c <DoJump2>

60103e58 <unsetenv>:
60103e58:	e3a0c045 	mov	ip, #69	; 0x45
60103e5c:	eafff0c2 	b	6010016c <DoJump2>

60103e60 <setjmp>:
60103e60:	e3a0c046 	mov	ip, #70	; 0x46
60103e64:	eafff0c0 	b	6010016c <DoJump2>

60103e68 <longjmp>:
60103e68:	e3a0c047 	mov	ip, #71	; 0x47
60103e6c:	eafff0be 	b	6010016c <DoJump2>

60103e70 <setlinebuf>:
60103e70:	e3a0c048 	mov	ip, #72	; 0x48
60103e74:	eafff0bc 	b	6010016c <DoJump2>

60103e78 <setvbuf>:
60103e78:	e3a0c049 	mov	ip, #73	; 0x49
60103e7c:	eafff0ba 	b	6010016c <DoJump2>

60103e80 <copysignf>:
60103e80:	e3a0c04a 	mov	ip, #74	; 0x4a
60103e84:	eafff0b8 	b	6010016c <DoJump2>

60103e88 <finitef>:
60103e88:	e3a0c04b 	mov	ip, #75	; 0x4b
60103e8c:	eafff0b6 	b	6010016c <DoJump2>

60103e90 <frexpf>:
60103e90:	e3a0c04c 	mov	ip, #76	; 0x4c
60103e94:	eafff0b4 	b	6010016c <DoJump2>

60103e98 <isinff>:
60103e98:	e3a0c04d 	mov	ip, #77	; 0x4d
60103e9c:	eafff0b2 	b	6010016c <DoJump2>

60103ea0 <isnanf>:
60103ea0:	e3a0c04e 	mov	ip, #78	; 0x4e
60103ea4:	eafff0b0 	b	6010016c <DoJump2>

60103ea8 <ldexpf>:
60103ea8:	e3a0c04f 	mov	ip, #79	; 0x4f
60103eac:	eafff0ae 	b	6010016c <DoJump2>

60103eb0 <modff>:
60103eb0:	e3a0c050 	mov	ip, #80	; 0x50
60103eb4:	eafff0ac 	b	6010016c <DoJump2>

60103eb8 <scalbnf>:
60103eb8:	e3a0c051 	mov	ip, #81	; 0x51
60103ebc:	eafff0aa 	b	6010016c <DoJump2>

60103ec0 <raise>:
60103ec0:	e3a0c052 	mov	ip, #82	; 0x52
60103ec4:	eafff0a8 	b	6010016c <DoJump2>

60103ec8 <signal>:
60103ec8:	e3a0c053 	mov	ip, #83	; 0x53
60103ecc:	eafff0a6 	b	6010016c <DoJump2>

60103ed0 <siprintf>:
60103ed0:	e3a0c054 	mov	ip, #84	; 0x54
60103ed4:	eafff0a4 	b	6010016c <DoJump2>

60103ed8 <siscanf>:
60103ed8:	e3a0c055 	mov	ip, #85	; 0x55
60103edc:	eafff0a2 	b	6010016c <DoJump2>

60103ee0 <sniprintf>:
60103ee0:	e3a0c056 	mov	ip, #86	; 0x56
60103ee4:	eafff0a0 	b	6010016c <DoJump2>

60103ee8 <snprintf>:
60103ee8:	e3a0c057 	mov	ip, #87	; 0x57
60103eec:	eafff09e 	b	6010016c <DoJump2>

60103ef0 <sprintf>:
60103ef0:	e3a0c058 	mov	ip, #88	; 0x58
60103ef4:	eafff09c 	b	6010016c <DoJump2>

60103ef8 <srand48>:
60103ef8:	e3a0c059 	mov	ip, #89	; 0x59
60103efc:	eafff09a 	b	6010016c <DoJump2>

60103f00 <sscanf>:
60103f00:	e3a0c05a 	mov	ip, #90	; 0x5a
60103f04:	eafff098 	b	6010016c <DoJump2>

60103f08 <strcasecmp>:
60103f08:	e3a0c05b 	mov	ip, #91	; 0x5b
60103f0c:	eafff096 	b	6010016c <DoJump2>

60103f10 <strcat>:
60103f10:	e3a0c05c 	mov	ip, #92	; 0x5c
60103f14:	eafff094 	b	6010016c <DoJump2>

60103f18 <strchr>:
60103f18:	e3a0c05d 	mov	ip, #93	; 0x5d
60103f1c:	eafff092 	b	6010016c <DoJump2>

60103f20 <strcmp>:
60103f20:	e3a0c05e 	mov	ip, #94	; 0x5e
60103f24:	eafff090 	b	6010016c <DoJump2>

60103f28 <strcoll>:
60103f28:	e3a0c05f 	mov	ip, #95	; 0x5f
60103f2c:	eafff08e 	b	6010016c <DoJump2>

60103f30 <strcpy>:
60103f30:	e3a0c060 	mov	ip, #96	; 0x60
60103f34:	eafff08c 	b	6010016c <DoJump2>

60103f38 <strcspn>:
60103f38:	e3a0c061 	mov	ip, #97	; 0x61
60103f3c:	eafff08a 	b	6010016c <DoJump2>

60103f40 <strdup>:
60103f40:	e3a0c062 	mov	ip, #98	; 0x62
60103f44:	eafff088 	b	6010016c <DoJump2>

60103f48 <strerror>:
60103f48:	e3a0c063 	mov	ip, #99	; 0x63
60103f4c:	eafff086 	b	6010016c <DoJump2>

60103f50 <strftime>:
60103f50:	e3a0c064 	mov	ip, #100	; 0x64
60103f54:	eafff084 	b	6010016c <DoJump2>

60103f58 <strlcat>:
60103f58:	e3a0c065 	mov	ip, #101	; 0x65
60103f5c:	eafff082 	b	6010016c <DoJump2>

60103f60 <strlcpy>:
60103f60:	e3a0c066 	mov	ip, #102	; 0x66
60103f64:	eafff080 	b	6010016c <DoJump2>

60103f68 <strlen>:
60103f68:	e3a0c067 	mov	ip, #103	; 0x67
60103f6c:	eafff07e 	b	6010016c <DoJump2>

60103f70 <strlwr>:
60103f70:	e3a0c068 	mov	ip, #104	; 0x68
60103f74:	eafff07c 	b	6010016c <DoJump2>

60103f78 <strncasecmp>:
60103f78:	e3a0c069 	mov	ip, #105	; 0x69
60103f7c:	eafff07a 	b	6010016c <DoJump2>

60103f80 <strncat>:
60103f80:	e3a0c06a 	mov	ip, #106	; 0x6a
60103f84:	eafff078 	b	6010016c <DoJump2>

60103f88 <strncmp>:
60103f88:	e3a0c06b 	mov	ip, #107	; 0x6b
60103f8c:	eafff076 	b	6010016c <DoJump2>

60103f90 <strncpy>:
60103f90:	e3a0c06c 	mov	ip, #108	; 0x6c
60103f94:	eafff074 	b	6010016c <DoJump2>

60103f98 <strndup>:
60103f98:	e3a0c06d 	mov	ip, #109	; 0x6d
60103f9c:	eafff072 	b	6010016c <DoJump2>

60103fa0 <strnlen>:
60103fa0:	e3a0c06e 	mov	ip, #110	; 0x6e
60103fa4:	eafff070 	b	6010016c <DoJump2>

60103fa8 <strpbrk>:
60103fa8:	e3a0c06f 	mov	ip, #111	; 0x6f
60103fac:	eafff06e 	b	6010016c <DoJump2>

60103fb0 <strptime>:
60103fb0:	e3a0c070 	mov	ip, #112	; 0x70
60103fb4:	eafff06c 	b	6010016c <DoJump2>

60103fb8 <strrchr>:
60103fb8:	e3a0c071 	mov	ip, #113	; 0x71
60103fbc:	eafff06a 	b	6010016c <DoJump2>

60103fc0 <strsep>:
60103fc0:	e3a0c072 	mov	ip, #114	; 0x72
60103fc4:	eafff068 	b	6010016c <DoJump2>

60103fc8 <strspn>:
60103fc8:	e3a0c073 	mov	ip, #115	; 0x73
60103fcc:	eafff066 	b	6010016c <DoJump2>

60103fd0 <strstr>:
60103fd0:	e3a0c074 	mov	ip, #116	; 0x74
60103fd4:	eafff064 	b	6010016c <DoJump2>

60103fd8 <strtod>:
60103fd8:	e3a0c075 	mov	ip, #117	; 0x75
60103fdc:	eafff062 	b	6010016c <DoJump2>

60103fe0 <strtof>:
60103fe0:	e3a0c076 	mov	ip, #118	; 0x76
60103fe4:	eafff060 	b	6010016c <DoJump2>

60103fe8 <strtok>:
60103fe8:	e3a0c077 	mov	ip, #119	; 0x77
60103fec:	eafff05e 	b	6010016c <DoJump2>

60103ff0 <strtol>:
60103ff0:	e3a0c078 	mov	ip, #120	; 0x78
60103ff4:	eafff05c 	b	6010016c <DoJump2>

60103ff8 <strtoll>:
60103ff8:	e3a0c079 	mov	ip, #121	; 0x79
60103ffc:	eafff05a 	b	6010016c <DoJump2>

60104000 <strtoul>:
60104000:	e3a0c07a 	mov	ip, #122	; 0x7a
60104004:	eafff058 	b	6010016c <DoJump2>

60104008 <strtoull>:
60104008:	e3a0c07b 	mov	ip, #123	; 0x7b
6010400c:	eafff056 	b	6010016c <DoJump2>

60104010 <strupr>:
60104010:	e3a0c07c 	mov	ip, #124	; 0x7c
60104014:	eafff054 	b	6010016c <DoJump2>

60104018 <strxfrm>:
60104018:	e3a0c07d 	mov	ip, #125	; 0x7d
6010401c:	eafff052 	b	6010016c <DoJump2>

60104020 <swab>:
60104020:	e3a0c07e 	mov	ip, #126	; 0x7e
60104024:	eafff050 	b	6010016c <DoJump2>

60104028 <isatty>:
60104028:	e3a0c07f 	mov	ip, #127	; 0x7f
6010402c:	eafff04e 	b	6010016c <DoJump2>

60104030 <close>:
60104030:	e3a0c080 	mov	ip, #128	; 0x80
60104034:	eafff04c 	b	6010016c <DoJump2>

60104038 <execve>:
60104038:	e3a0c081 	mov	ip, #129	; 0x81
6010403c:	eafff04a 	b	6010016c <DoJump2>

60104040 <fcntl>:
60104040:	e3a0c082 	mov	ip, #130	; 0x82
60104044:	eafff048 	b	6010016c <DoJump2>

60104048 <fork>:
60104048:	e3a0c083 	mov	ip, #131	; 0x83
6010404c:	eafff046 	b	6010016c <DoJump2>

60104050 <fstat>:
60104050:	e3a0c084 	mov	ip, #132	; 0x84
60104054:	eafff044 	b	6010016c <DoJump2>

60104058 <getpid>:
60104058:	e3a0c085 	mov	ip, #133	; 0x85
6010405c:	eafff042 	b	6010016c <DoJump2>

60104060 <gettimeofday>:
60104060:	e3a0c086 	mov	ip, #134	; 0x86
60104064:	eafff040 	b	6010016c <DoJump2>

60104068 <kill>:
60104068:	e3a0c087 	mov	ip, #135	; 0x87
6010406c:	eafff03e 	b	6010016c <DoJump2>

60104070 <link>:
60104070:	e3a0c088 	mov	ip, #136	; 0x88
60104074:	eafff03c 	b	6010016c <DoJump2>

60104078 <open>:
60104078:	e3a0c08a 	mov	ip, #138	; 0x8a
6010407c:	eafff03a 	b	6010016c <DoJump2>

60104080 <read>:
60104080:	e3a0c08b 	mov	ip, #139	; 0x8b
60104084:	eafff038 	b	6010016c <DoJump2>

60104088 <sbrk>:
60104088:	e3a0c08c 	mov	ip, #140	; 0x8c
6010408c:	eafff036 	b	6010016c <DoJump2>

60104090 <stat>:
60104090:	e3a0c08d 	mov	ip, #141	; 0x8d
60104094:	eafff034 	b	6010016c <DoJump2>

60104098 <system>:
60104098:	e3a0c08e 	mov	ip, #142	; 0x8e
6010409c:	eafff032 	b	6010016c <DoJump2>

601040a0 <times>:
601040a0:	e3a0c08f 	mov	ip, #143	; 0x8f
601040a4:	eafff030 	b	6010016c <DoJump2>

601040a8 <unlink>:
601040a8:	e3a0c090 	mov	ip, #144	; 0x90
601040ac:	eafff02e 	b	6010016c <DoJump2>

601040b0 <wait>:
601040b0:	e3a0c091 	mov	ip, #145	; 0x91
601040b4:	eafff02c 	b	6010016c <DoJump2>

601040b8 <write>:
601040b8:	e3a0c092 	mov	ip, #146	; 0x92
601040bc:	eafff02a 	b	6010016c <DoJump2>

601040c0 <tdelete>:
601040c0:	e3a0c093 	mov	ip, #147	; 0x93
601040c4:	eafff028 	b	6010016c <DoJump2>

601040c8 <tdestroy>:
601040c8:	e3a0c094 	mov	ip, #148	; 0x94
601040cc:	eafff026 	b	6010016c <DoJump2>

601040d0 <tfind>:
601040d0:	e3a0c095 	mov	ip, #149	; 0x95
601040d4:	eafff024 	b	6010016c <DoJump2>

601040d8 <time>:
601040d8:	e3a0c096 	mov	ip, #150	; 0x96
601040dc:	eafff022 	b	6010016c <DoJump2>

601040e0 <tmpfile>:
601040e0:	e3a0c097 	mov	ip, #151	; 0x97
601040e4:	eafff020 	b	6010016c <DoJump2>

601040e8 <tempnam>:
601040e8:	e3a0c098 	mov	ip, #152	; 0x98
601040ec:	eafff01e 	b	6010016c <DoJump2>

601040f0 <tmpnam>:
601040f0:	e3a0c099 	mov	ip, #153	; 0x99
601040f4:	eafff01c 	b	6010016c <DoJump2>

601040f8 <toascii>:
601040f8:	e3a0c09a 	mov	ip, #154	; 0x9a
601040fc:	eafff01a 	b	6010016c <DoJump2>

60104100 <tolower>:
60104100:	e3a0c09b 	mov	ip, #155	; 0x9b
60104104:	eafff018 	b	6010016c <DoJump2>

60104108 <toupper>:
60104108:	e3a0c09c 	mov	ip, #156	; 0x9c
6010410c:	eafff016 	b	6010016c <DoJump2>

60104110 <towctrans>:
60104110:	e3a0c09d 	mov	ip, #157	; 0x9d
60104114:	eafff014 	b	6010016c <DoJump2>

60104118 <towlower>:
60104118:	e3a0c09e 	mov	ip, #158	; 0x9e
6010411c:	eafff012 	b	6010016c <DoJump2>

60104120 <towupper>:
60104120:	e3a0c09f 	mov	ip, #159	; 0x9f
60104124:	eafff010 	b	6010016c <DoJump2>

60104128 <tsearch>:
60104128:	e3a0c0a0 	mov	ip, #160	; 0xa0
6010412c:	eafff00e 	b	6010016c <DoJump2>

60104130 <twalk>:
60104130:	e3a0c0a1 	mov	ip, #161	; 0xa1
60104134:	eafff00c 	b	6010016c <DoJump2>

60104138 <tzset>:
60104138:	e3a0c0a2 	mov	ip, #162	; 0xa2
6010413c:	eafff00a 	b	6010016c <DoJump2>

60104140 <ungetc>:
60104140:	e3a0c0a3 	mov	ip, #163	; 0xa3
60104144:	eafff008 	b	6010016c <DoJump2>

60104148 <valloc>:
60104148:	e3a0c0a4 	mov	ip, #164	; 0xa4
6010414c:	eafff006 	b	6010016c <DoJump2>

60104150 <pvalloc>:
60104150:	e3a0c0a5 	mov	ip, #165	; 0xa5
60104154:	eafff004 	b	6010016c <DoJump2>

60104158 <vasiprintf>:
60104158:	e3a0c0a6 	mov	ip, #166	; 0xa6
6010415c:	eafff002 	b	6010016c <DoJump2>

60104160 <vasprintf>:
60104160:	e3a0c0a7 	mov	ip, #167	; 0xa7
60104164:	eafff000 	b	6010016c <DoJump2>

60104168 <vfiprintf>:
60104168:	e3a0c0a8 	mov	ip, #168	; 0xa8
6010416c:	eaffeffe 	b	6010016c <DoJump2>

60104170 <vfiscanf>:
60104170:	e3a0c0a9 	mov	ip, #169	; 0xa9
60104174:	eaffeffc 	b	6010016c <DoJump2>

60104178 <vfprintf>:
60104178:	e3a0c0aa 	mov	ip, #170	; 0xaa
6010417c:	eaffeffa 	b	6010016c <DoJump2>

60104180 <vfscanf>:
60104180:	e3a0c0ab 	mov	ip, #171	; 0xab
60104184:	eaffeff8 	b	6010016c <DoJump2>

60104188 <viprintf>:
60104188:	e3a0c0ac 	mov	ip, #172	; 0xac
6010418c:	eaffeff6 	b	6010016c <DoJump2>

60104190 <viscanf>:
60104190:	e3a0c0ad 	mov	ip, #173	; 0xad
60104194:	eaffeff4 	b	6010016c <DoJump2>

60104198 <vprintf>:
60104198:	e3a0c0ae 	mov	ip, #174	; 0xae
6010419c:	eaffeff2 	b	6010016c <DoJump2>

601041a0 <vscanf>:
601041a0:	e3a0c0af 	mov	ip, #175	; 0xaf
601041a4:	eaffeff0 	b	6010016c <DoJump2>

601041a8 <vsiprintf>:
601041a8:	e3a0c0b0 	mov	ip, #176	; 0xb0
601041ac:	eaffefee 	b	6010016c <DoJump2>

601041b0 <vsiscanf>:
601041b0:	e3a0c0b1 	mov	ip, #177	; 0xb1
601041b4:	eaffefec 	b	6010016c <DoJump2>

601041b8 <vsniprintf>:
601041b8:	e3a0c0b2 	mov	ip, #178	; 0xb2
601041bc:	eaffefea 	b	6010016c <DoJump2>

601041c0 <vsnprintf>:
601041c0:	e3a0c0b3 	mov	ip, #179	; 0xb3
601041c4:	eaffefe8 	b	6010016c <DoJump2>

601041c8 <vsprintf>:
601041c8:	e3a0c0b4 	mov	ip, #180	; 0xb4
601041cc:	eaffefe6 	b	6010016c <DoJump2>

601041d0 <vsscanf>:
601041d0:	e3a0c0b5 	mov	ip, #181	; 0xb5
601041d4:	eaffefe4 	b	6010016c <DoJump2>

601041d8 <wcrtomb>:
601041d8:	e3a0c0b6 	mov	ip, #182	; 0xb6
601041dc:	eaffefe2 	b	6010016c <DoJump2>

601041e0 <wcscat>:
601041e0:	e3a0c0b7 	mov	ip, #183	; 0xb7
601041e4:	eaffefe0 	b	6010016c <DoJump2>

601041e8 <wcschr>:
601041e8:	e3a0c0b8 	mov	ip, #184	; 0xb8
601041ec:	eaffefde 	b	6010016c <DoJump2>

601041f0 <wcscmp>:
601041f0:	e3a0c0b9 	mov	ip, #185	; 0xb9
601041f4:	eaffefdc 	b	6010016c <DoJump2>

601041f8 <wcscoll>:
601041f8:	e3a0c0ba 	mov	ip, #186	; 0xba
601041fc:	eaffefda 	b	6010016c <DoJump2>

60104200 <wcscpy>:
60104200:	e3a0c0bb 	mov	ip, #187	; 0xbb
60104204:	eaffefd8 	b	6010016c <DoJump2>

60104208 <wcscspn>:
60104208:	e3a0c0bc 	mov	ip, #188	; 0xbc
6010420c:	eaffefd6 	b	6010016c <DoJump2>

60104210 <wcslcat>:
60104210:	e3a0c0bd 	mov	ip, #189	; 0xbd
60104214:	eaffefd4 	b	6010016c <DoJump2>

60104218 <wcslcpy>:
60104218:	e3a0c0be 	mov	ip, #190	; 0xbe
6010421c:	eaffefd2 	b	6010016c <DoJump2>

60104220 <wcslen>:
60104220:	e3a0c0bf 	mov	ip, #191	; 0xbf
60104224:	eaffefd0 	b	6010016c <DoJump2>

60104228 <wcsncat>:
60104228:	e3a0c0c0 	mov	ip, #192	; 0xc0
6010422c:	eaffefce 	b	6010016c <DoJump2>

60104230 <wcsncmp>:
60104230:	e3a0c0c1 	mov	ip, #193	; 0xc1
60104234:	eaffefcc 	b	6010016c <DoJump2>

60104238 <wcsncpy>:
60104238:	e3a0c0c2 	mov	ip, #194	; 0xc2
6010423c:	eaffefca 	b	6010016c <DoJump2>

60104240 <wcsnlen>:
60104240:	e3a0c0c3 	mov	ip, #195	; 0xc3
60104244:	eaffefc8 	b	6010016c <DoJump2>

60104248 <wcspbrk>:
60104248:	e3a0c0c4 	mov	ip, #196	; 0xc4
6010424c:	eaffefc6 	b	6010016c <DoJump2>

60104250 <wcsrchr>:
60104250:	e3a0c0c5 	mov	ip, #197	; 0xc5
60104254:	eaffefc4 	b	6010016c <DoJump2>

60104258 <wcsrtombs>:
60104258:	e3a0c0c6 	mov	ip, #198	; 0xc6
6010425c:	eaffefc2 	b	6010016c <DoJump2>

60104260 <wcsspn>:
60104260:	e3a0c0c7 	mov	ip, #199	; 0xc7
60104264:	eaffefc0 	b	6010016c <DoJump2>

60104268 <wcsstr>:
60104268:	e3a0c0c8 	mov	ip, #200	; 0xc8
6010426c:	eaffefbe 	b	6010016c <DoJump2>

60104270 <wcstombs>:
60104270:	e3a0c0c9 	mov	ip, #201	; 0xc9
60104274:	eaffefbc 	b	6010016c <DoJump2>

60104278 <wcswidth>:
60104278:	e3a0c0ca 	mov	ip, #202	; 0xca
6010427c:	eaffefba 	b	6010016c <DoJump2>

60104280 <wctob>:
60104280:	e3a0c0cb 	mov	ip, #203	; 0xcb
60104284:	eaffefb8 	b	6010016c <DoJump2>

60104288 <wctomb>:
60104288:	e3a0c0cc 	mov	ip, #204	; 0xcc
6010428c:	eaffefb6 	b	6010016c <DoJump2>

60104290 <wctrans>:
60104290:	e3a0c0cd 	mov	ip, #205	; 0xcd
60104294:	eaffefb4 	b	6010016c <DoJump2>

60104298 <wctype>:
60104298:	e3a0c0ce 	mov	ip, #206	; 0xce
6010429c:	eaffefb2 	b	6010016c <DoJump2>

601042a0 <wcwidth>:
601042a0:	e3a0c0cf 	mov	ip, #207	; 0xcf
601042a4:	eaffefb0 	b	6010016c <DoJump2>

601042a8 <wmemchr>:
601042a8:	e3a0c0d0 	mov	ip, #208	; 0xd0
601042ac:	eaffefae 	b	6010016c <DoJump2>

601042b0 <wmemcmp>:
601042b0:	e3a0c0d1 	mov	ip, #209	; 0xd1
601042b4:	eaffefac 	b	6010016c <DoJump2>

601042b8 <wmemcpy>:
601042b8:	e3a0c0d2 	mov	ip, #210	; 0xd2
601042bc:	eaffefaa 	b	6010016c <DoJump2>

601042c0 <wmemmove>:
601042c0:	e3a0c0d3 	mov	ip, #211	; 0xd3
601042c4:	eaffefa8 	b	6010016c <DoJump2>

601042c8 <wmemset>:
601042c8:	e3a0c0d4 	mov	ip, #212	; 0xd4
601042cc:	eaffefa6 	b	6010016c <DoJump2>

601042d0 <__udivsi3>:
601042d0:	2900      	cmp	r1, #0
601042d2:	d034      	beq	6010433e <__udivsi3+0x6e>
601042d4:	2301      	mov	r3, #1
601042d6:	2200      	mov	r2, #0
601042d8:	b410      	push	{r4}
601042da:	4288      	cmp	r0, r1
601042dc:	d32c      	bcc	60104338 <__udivsi3+0x68>
601042de:	2401      	mov	r4, #1
601042e0:	0724      	lsl	r4, r4, #28
601042e2:	42a1      	cmp	r1, r4
601042e4:	d204      	bcs	601042f0 <__udivsi3+0x20>
601042e6:	4281      	cmp	r1, r0
601042e8:	d202      	bcs	601042f0 <__udivsi3+0x20>
601042ea:	0109      	lsl	r1, r1, #4
601042ec:	011b      	lsl	r3, r3, #4
601042ee:	e7f8      	b	601042e2 <__udivsi3+0x12>
601042f0:	00e4      	lsl	r4, r4, #3
601042f2:	42a1      	cmp	r1, r4
601042f4:	d204      	bcs	60104300 <__udivsi3+0x30>
601042f6:	4281      	cmp	r1, r0
601042f8:	d202      	bcs	60104300 <__udivsi3+0x30>
601042fa:	0049      	lsl	r1, r1, #1
601042fc:	005b      	lsl	r3, r3, #1
601042fe:	e7f8      	b	601042f2 <__udivsi3+0x22>
60104300:	4288      	cmp	r0, r1
60104302:	d301      	bcc	60104308 <__udivsi3+0x38>
60104304:	1a40      	sub	r0, r0, r1
60104306:	431a      	orr	r2, r3
60104308:	084c      	lsr	r4, r1, #1
6010430a:	42a0      	cmp	r0, r4
6010430c:	d302      	bcc	60104314 <__udivsi3+0x44>
6010430e:	1b00      	sub	r0, r0, r4
60104310:	085c      	lsr	r4, r3, #1
60104312:	4322      	orr	r2, r4
60104314:	088c      	lsr	r4, r1, #2
60104316:	42a0      	cmp	r0, r4
60104318:	d302      	bcc	60104320 <__udivsi3+0x50>
6010431a:	1b00      	sub	r0, r0, r4
6010431c:	089c      	lsr	r4, r3, #2
6010431e:	4322      	orr	r2, r4
60104320:	08cc      	lsr	r4, r1, #3
60104322:	42a0      	cmp	r0, r4
60104324:	d302      	bcc	6010432c <__udivsi3+0x5c>
60104326:	1b00      	sub	r0, r0, r4
60104328:	08dc      	lsr	r4, r3, #3
6010432a:	4322      	orr	r2, r4
6010432c:	2800      	cmp	r0, #0
6010432e:	d003      	beq	60104338 <__udivsi3+0x68>
60104330:	091b      	lsr	r3, r3, #4
60104332:	d001      	beq	60104338 <__udivsi3+0x68>
60104334:	0909      	lsr	r1, r1, #4
60104336:	e7e3      	b	60104300 <__udivsi3+0x30>
60104338:	1c10      	mov	r0, r2		(add r0, r2, #0)
6010433a:	bc10      	pop	{r4}
6010433c:	4770      	bx	lr
6010433e:	b500      	push	{lr}
60104340:	f8caf000 	bl	601044d8 <__aeabi_idiv0>
60104344:	2000      	mov	r0, #0
60104346:	bc02      	pop	{r1}
60104348:	4708      	bx	r1
	...

6010434c <__aeabi_uidivmod>:
6010434c:	b503      	push	{r0, r1, lr}
6010434e:	ffbff7ff 	bl	601042d0 <__udivsi3>
60104352:	bc0e      	pop	{r1, r2, r3}
60104354:	4342      	mul	r2, r0
60104356:	1a89      	sub	r1, r1, r2
60104358:	4718      	bx	r3
6010435a:	46c0      	nop			(mov r8, r8)

6010435c <__divsi3>:
6010435c:	2900      	cmp	r1, #0
6010435e:	d041      	beq	601043e4 <__divsi3+0x88>
60104360:	b410      	push	{r4}
60104362:	1c04      	mov	r4, r0		(add r4, r0, #0)
60104364:	404c      	eor	r4, r1
60104366:	46a4      	mov	ip, r4
60104368:	2301      	mov	r3, #1
6010436a:	2200      	mov	r2, #0
6010436c:	2900      	cmp	r1, #0
6010436e:	d500      	bpl	60104372 <__divsi3+0x16>
60104370:	4249      	neg	r1, r1
60104372:	2800      	cmp	r0, #0
60104374:	d500      	bpl	60104378 <__divsi3+0x1c>
60104376:	4240      	neg	r0, r0
60104378:	4288      	cmp	r0, r1
6010437a:	d32c      	bcc	601043d6 <__divsi3+0x7a>
6010437c:	2401      	mov	r4, #1
6010437e:	0724      	lsl	r4, r4, #28
60104380:	42a1      	cmp	r1, r4
60104382:	d204      	bcs	6010438e <__divsi3+0x32>
60104384:	4281      	cmp	r1, r0
60104386:	d202      	bcs	6010438e <__divsi3+0x32>
60104388:	0109      	lsl	r1, r1, #4
6010438a:	011b      	lsl	r3, r3, #4
6010438c:	e7f8      	b	60104380 <__divsi3+0x24>
6010438e:	00e4      	lsl	r4, r4, #3
60104390:	42a1      	cmp	r1, r4
60104392:	d204      	bcs	6010439e <__divsi3+0x42>
60104394:	4281      	cmp	r1, r0
60104396:	d202      	bcs	6010439e <__divsi3+0x42>
60104398:	0049      	lsl	r1, r1, #1
6010439a:	005b      	lsl	r3, r3, #1
6010439c:	e7f8      	b	60104390 <__divsi3+0x34>
6010439e:	4288      	cmp	r0, r1
601043a0:	d301      	bcc	601043a6 <__divsi3+0x4a>
601043a2:	1a40      	sub	r0, r0, r1
601043a4:	431a      	orr	r2, r3
601043a6:	084c      	lsr	r4, r1, #1
601043a8:	42a0      	cmp	r0, r4
601043aa:	d302      	bcc	601043b2 <__divsi3+0x56>
601043ac:	1b00      	sub	r0, r0, r4
601043ae:	085c      	lsr	r4, r3, #1
601043b0:	4322      	orr	r2, r4
601043b2:	088c      	lsr	r4, r1, #2
601043b4:	42a0      	cmp	r0, r4
601043b6:	d302      	bcc	601043be <__divsi3+0x62>
601043b8:	1b00      	sub	r0, r0, r4
601043ba:	089c      	lsr	r4, r3, #2
601043bc:	4322      	orr	r2, r4
601043be:	08cc      	lsr	r4, r1, #3
601043c0:	42a0      	cmp	r0, r4
601043c2:	d302      	bcc	601043ca <__divsi3+0x6e>
601043c4:	1b00      	sub	r0, r0, r4
601043c6:	08dc      	lsr	r4, r3, #3
601043c8:	4322      	orr	r2, r4
601043ca:	2800      	cmp	r0, #0
601043cc:	d003      	beq	601043d6 <__divsi3+0x7a>
601043ce:	091b      	lsr	r3, r3, #4
601043d0:	d001      	beq	601043d6 <__divsi3+0x7a>
601043d2:	0909      	lsr	r1, r1, #4
601043d4:	e7e3      	b	6010439e <__divsi3+0x42>
601043d6:	1c10      	mov	r0, r2		(add r0, r2, #0)
601043d8:	4664      	mov	r4, ip
601043da:	2c00      	cmp	r4, #0
601043dc:	d500      	bpl	601043e0 <__divsi3+0x84>
601043de:	4240      	neg	r0, r0
601043e0:	bc10      	pop	{r4}
601043e2:	4770      	bx	lr
601043e4:	b500      	push	{lr}
601043e6:	f877f000 	bl	601044d8 <__aeabi_idiv0>
601043ea:	2000      	mov	r0, #0
601043ec:	bc02      	pop	{r1}
601043ee:	4708      	bx	r1

601043f0 <__aeabi_idivmod>:
601043f0:	b503      	push	{r0, r1, lr}
601043f2:	ffb3f7ff 	bl	6010435c <__divsi3>
601043f6:	bc0e      	pop	{r1, r2, r3}
601043f8:	4342      	mul	r2, r0
601043fa:	1a89      	sub	r1, r1, r2
601043fc:	4718      	bx	r3
601043fe:	46c0      	nop			(mov r8, r8)

60104400 <__modsi3>:
60104400:	2301      	mov	r3, #1
60104402:	2900      	cmp	r1, #0
60104404:	d062      	beq	601044cc <__modsi3+0xcc>
60104406:	d500      	bpl	6010440a <__modsi3+0xa>
60104408:	4249      	neg	r1, r1
6010440a:	b410      	push	{r4}
6010440c:	b401      	push	{r0}
6010440e:	2800      	cmp	r0, #0
60104410:	d500      	bpl	60104414 <__modsi3+0x14>
60104412:	4240      	neg	r0, r0
60104414:	4288      	cmp	r0, r1
60104416:	d353      	bcc	601044c0 <__modsi3+0xc0>
60104418:	2401      	mov	r4, #1
6010441a:	0724      	lsl	r4, r4, #28
6010441c:	42a1      	cmp	r1, r4
6010441e:	d204      	bcs	6010442a <__modsi3+0x2a>
60104420:	4281      	cmp	r1, r0
60104422:	d202      	bcs	6010442a <__modsi3+0x2a>
60104424:	0109      	lsl	r1, r1, #4
60104426:	011b      	lsl	r3, r3, #4
60104428:	e7f8      	b	6010441c <__modsi3+0x1c>
6010442a:	00e4      	lsl	r4, r4, #3
6010442c:	42a1      	cmp	r1, r4
6010442e:	d204      	bcs	6010443a <__modsi3+0x3a>
60104430:	4281      	cmp	r1, r0
60104432:	d202      	bcs	6010443a <__modsi3+0x3a>
60104434:	0049      	lsl	r1, r1, #1
60104436:	005b      	lsl	r3, r3, #1
60104438:	e7f8      	b	6010442c <__modsi3+0x2c>
6010443a:	2200      	mov	r2, #0
6010443c:	4288      	cmp	r0, r1
6010443e:	d300      	bcc	60104442 <__modsi3+0x42>
60104440:	1a40      	sub	r0, r0, r1
60104442:	084c      	lsr	r4, r1, #1
60104444:	42a0      	cmp	r0, r4
60104446:	d305      	bcc	60104454 <__modsi3+0x54>
60104448:	1b00      	sub	r0, r0, r4
6010444a:	469c      	mov	ip, r3
6010444c:	2401      	mov	r4, #1
6010444e:	41e3      	ror	r3, r4
60104450:	431a      	orr	r2, r3
60104452:	4663      	mov	r3, ip
60104454:	088c      	lsr	r4, r1, #2
60104456:	42a0      	cmp	r0, r4
60104458:	d305      	bcc	60104466 <__modsi3+0x66>
6010445a:	1b00      	sub	r0, r0, r4
6010445c:	469c      	mov	ip, r3
6010445e:	2402      	mov	r4, #2
60104460:	41e3      	ror	r3, r4
60104462:	431a      	orr	r2, r3
60104464:	4663      	mov	r3, ip
60104466:	08cc      	lsr	r4, r1, #3
60104468:	42a0      	cmp	r0, r4
6010446a:	d305      	bcc	60104478 <__modsi3+0x78>
6010446c:	1b00      	sub	r0, r0, r4
6010446e:	469c      	mov	ip, r3
60104470:	2403      	mov	r4, #3
60104472:	41e3      	ror	r3, r4
60104474:	431a      	orr	r2, r3
60104476:	4663      	mov	r3, ip
60104478:	469c      	mov	ip, r3
6010447a:	2800      	cmp	r0, #0
6010447c:	d003      	beq	60104486 <__modsi3+0x86>
6010447e:	091b      	lsr	r3, r3, #4
60104480:	d001      	beq	60104486 <__modsi3+0x86>
60104482:	0909      	lsr	r1, r1, #4
60104484:	e7d9      	b	6010443a <__modsi3+0x3a>
60104486:	240e      	mov	r4, #14
60104488:	0724      	lsl	r4, r4, #28
6010448a:	4022      	and	r2, r4
6010448c:	d018      	beq	601044c0 <__modsi3+0xc0>
6010448e:	4663      	mov	r3, ip
60104490:	2407      	mov	r4, #7
60104492:	4223      	tst	r3, r4
60104494:	d014      	beq	601044c0 <__modsi3+0xc0>
60104496:	4663      	mov	r3, ip
60104498:	2403      	mov	r4, #3
6010449a:	41e3      	ror	r3, r4
6010449c:	421a      	tst	r2, r3
6010449e:	d001      	beq	601044a4 <__modsi3+0xa4>
601044a0:	08cc      	lsr	r4, r1, #3
601044a2:	1900      	add	r0, r0, r4
601044a4:	4663      	mov	r3, ip
601044a6:	2402      	mov	r4, #2
601044a8:	41e3      	ror	r3, r4
601044aa:	421a      	tst	r2, r3
601044ac:	d001      	beq	601044b2 <__modsi3+0xb2>
601044ae:	088c      	lsr	r4, r1, #2
601044b0:	1900      	add	r0, r0, r4
601044b2:	4663      	mov	r3, ip
601044b4:	2401      	mov	r4, #1
601044b6:	41e3      	ror	r3, r4
601044b8:	421a      	tst	r2, r3
601044ba:	d001      	beq	601044c0 <__modsi3+0xc0>
601044bc:	084c      	lsr	r4, r1, #1
601044be:	1900      	add	r0, r0, r4
601044c0:	bc10      	pop	{r4}
601044c2:	2c00      	cmp	r4, #0
601044c4:	d500      	bpl	601044c8 <__modsi3+0xc8>
601044c6:	4240      	neg	r0, r0
601044c8:	bc10      	pop	{r4}
601044ca:	4770      	bx	lr
601044cc:	b500      	push	{lr}
601044ce:	f803f000 	bl	601044d8 <__aeabi_idiv0>
601044d2:	2000      	mov	r0, #0
601044d4:	bc02      	pop	{r1}
601044d6:	4708      	bx	r1

601044d8 <__aeabi_idiv0>:
601044d8:	4770      	bx	lr
601044da:	46c0      	nop			(mov r8, r8)

601044dc <_fonts>:
601044dc:	4040 0000 0000 0000 0000 0000 0000 0000     @@..............
	...
60104520:	0f00 00e0 0000 0000 1000 0060 0000 0000     ..........`.....
60104530:	2000 00f0 0000 0000 4100 00f0 0000 0000     . .......A......
60104540:	ff00 00f8 0000 0000 8300 00f8 0000 0000     ................
60104550:	0101 00fc 0000 0000 0101 00fc 0000 0000     ................
60104560:	0002 00fc 0000 0000 0002 00fe 0000 0000     ................
60104570:	0002 007e 0000 0000 0004 007f 0000 0000     ..~.............
60104580:	0004 807f 0000 0000 0008 803f 0000 0000     ..........?.....
60104590:	0008 803f 0000 0000 0010 801f 0000 0000     ..?.............
601045a0:	0010 c01f 0000 0000 0010 c00f 0000 0000     ................
601045b0:	2020 e00f 0000 0000 6020 e00f 0000 0000       ...... `......
601045c0:	5040 f007 0000 0000 9040 f007 0000 0000     @P......@.......
601045d0:	8840 f003 0000 0000 0881 f803 0000 0000     @...............
601045e0:	fc81 f801 0000 0100 0402 fc01 0000 0100     ................
601045f0:	0202 fc01 0000 0100 fe07 fe00 0000 0200     ................
60104600:	0000 fe00 0000 0200 0000 7e00 0000 0400     ...........~....
60104610:	0000 7f00 0000 0400 ff0f 3f80 0000 0800     ...........?....
60104620:	0008 3f80 0080 0800 0008 3f40 0080 0800     ...?......@?....
60104630:	0008 1f40 00c0 1000 ff0f 1fc0 00c0 1000     ..@.............
60104640:	8000 0f20 00fc 2000 8000 0f20 00fc 2000     .. .... .. .... 
60104650:	8000 0720 00fc e003 8300 07e0 00fc 0002     .. .............
60104660:	8200 0100 00fc 0002 0201 0100 00f8 0002     ................
60104670:	0202 0100 00e0 ff03 03fc ffff 00c0 0000     ................
	...

601046de <_comport>:
601046de:	4040 0000 0000 0000 0000 0000 0000 0000     @@..............
	...
60104706:	0000 7f00 00f8 0000 0000 ff00 00ff 0000     ................
60104716:	0000 c001 8007 0000 0000 8001 c001 0000     ................
60104726:	0000 8001 e000 0000 0000 c001 7000 0000     .............p..
60104736:	0000 ff00 38f8 0000 0000 7f00 1cfc 0000     .....8..........
60104746:	0000 0000 0e0e 0000 0000 0000 0707 0000     ................
60104756:	0000 0000 8303 0000 0000 0000 c101 0080     ................
60104766:	0000 0000 c100 0080 0000 0000 6000 00c0     .............`..
60104776:	0000 0000 6000 00c0 0000 0000 3000 0060     .....`.......0`.
60104786:	0000 0000 3000 0060 0000 0000 3000 0060     .....0`......0`.
60104796:	0000 0000 3000 0060 0000 0000 3000 0060     .....0`......0`.
601047a6:	0000 0000 3000 0060 0000 0000 3000 0060     .....0`......0`.
601047b6:	0000 0000 3000 0060 0000 0000 3000 0060     .....0`......0`.
601047c6:	0000 0000 3000 0060 0000 0000 7000 0070     .....0`......pp.
601047d6:	0000 0000 f000 0078 0000 0000 f000 0078     ......x.......x.
601047e6:	0000 0000 e001 003c 0000 0000 8007 000f     ......<.........
601047f6:	0000 0000 000f 8007 0000 0000 000f 8007     ................
60104806:	0000 0000 000f 8007 0000 0000 001e c003     ................
60104816:	0000 0000 001e c003 0000 0000 003c e001     ............<...
60104826:	0000 0000 0078 f000 0000 e003 00f0 7800     ....x..........x
60104836:	003e f107 00e0 3c00 007f 3306 00c0 1e00     >......<...3....
60104846:	0063 3706 0080 0f00 0063 3f06 0000 0700     c..7....c..?....
60104856:	00e3 3e06 0000 0300 00e3 3c06 ff03 01ff     ...>.......<....
60104866:	00e3 3806 0002 0001 00e3 3806 ff02 00fd     ...8.......8....
60104876:	00e3 3806 0002 0001 00e3 3806 ff03 00ff     ...8.......8....
60104886:	00e3 0006 0000 0000 0003 0006 0000 0000     ................
60104896:	0003 0006 0000 0000 0003 0006 0000 0000     ................
601048a6:	0003 ff07 ffff ffff 00ff ff07 ffff ffff     ................
601048b6:	00ff ff03 ffff ffff 00fe 0700 ffff ffff     ................
601048c6:	0000 0300 ffff feff 0000 0000 0000 0000     ................
	...

601048e0 <_drive>:
601048e0:	4040 0000 0000 0000 0000 0000 0000 0000     @@..............
	...
6010492c:	0000 8007 0000 0000 0300 e0ff 0000 0000     ................
6010493c:	ff03 f8ff 0000 0000 ff7f 3cfe 0000 0000     ...........<....
6010494c:	ffbf 1ec0 0000 0000 e0bf 1f00 0000 0000     ................
6010495c:	00be df01 0000 0000 00bc 1f15 0000 0000     ................
6010496c:	19bc 9fd5 0000 0000 94bd 1f95 0000 0000     ................
6010497c:	54bd 1f95 0000 0000 58bd df95 0000 0000     .T.......X......
6010498c:	54bd 1f88 0000 0000 55bd 1fc0 0000 0000     .T.......U......
6010499c:	80bd 1f00 0000 0000 00bc 1f00 0000 0000     ................
601049ac:	00bc 1f00 0000 0000 00bc 1f00 0000 0000     ................
601049bc:	00bc 1f00 0000 0000 00bc 7f00 0000 0000     ................
601049cc:	00bc ff07 0000 0000 00bc ff7f 0000 0000     ................
601049dc:	0fbc ffff 0000 0000 ffbf ffff 0000 0000     ................
601049ec:	ffbf ffff 0000 0000 ffbf ffff 0000 0000     ................
601049fc:	ffbf ffff 0000 0000 ffbf ffff 0000 0000     ................
60104a0c:	ffbf ffff 0000 0000 ffbf 7ff0 0000 0000     ................
60104a1c:	febf 7f00 0000 0000 c0bf 7f00 0000 0000     ................
60104a2c:	00bf 7f00 0000 0000 00bf 7f00 0000 0000     ................
60104a3c:	00bf 7f00 0000 0000 00bf 7f00 0000 0000     ................
60104a4c:	00bf 7f00 0000 0000 00bf 7f00 0000 0000     ................
60104a5c:	00bf 7f00 0000 0000 00bf fc03 0000 0000     ................
60104a6c:	00bf e03f 0000 0000 01bf 00fe 0000 0000     ..?.............
60104a7c:	1fbf 00e0 0000 0000 ffbf 0000 0000 0000     ................
60104a8c:	f8bf 0000 0000 0000 80ff 0000 0000 0000     ................
60104a9c:	0078 0000 0000 0000 0000 0000 0000 0000     x...............
	...

60104ae2 <_databits>:
60104ae2:	4040 0000 0000 0000 0000 0000 0000 0000     @@..............
	...
60104b2e:	0000 1e00 0000 0000 0000 ff00 00c0 0000     ................
60104b3e:	0000 ff03 00f0 0000 0000 e007 00f8 0000     ................
60104b4e:	0000 800f 003e 0000 1f00 00de 001f 0000     ....>...........
60104b5e:	7f00 00f8 8007 0000 f801 0070 c003 0000     ..........p.....
60104b6e:	e003 0000 e001 0000 c103 07f0 f0bc 0000     ................
60104b7e:	0007 0410 7084 0000 0007 0430 3884 0000     .....p....0..8..
60104b8e:	0007 0720 1c9c 0000 8003 0460 1c90 0000     .. .......`.....
60104b9e:	c003 6447 1c90 0000 e001 4485 3880 0000     ..Gd.......D.8..
60104bae:	f000 4787 7890 0000 70f8 0000 f001 0300     ...G.x...p......
60104bbe:	38fe 0000 e007 0700 1fff 000e 800f 0700     .8..............
60104bce:	07ff 80ff 001e 0f00 81ff c0f1 007c 1f00     ............|...
60104bde:	c0ff ff01 00f0 1f00 c0ff 7f00 00e0 1f00     ................
60104bee:	c0ff 1e0c 0000 0f00 80ff 001e 0000 0f00     ................
60104bfe:	80ff 003f 0000 0700 00ff 003f 0000 0300     ..?.......?.....
60104c0e:	01fe 009e 0000 0100 03fc 00cc 0000 1800     ................
60104c1e:	c3d8 00c0 0000 3d00 e18d 0080 0000 7f00     .......=........
60104c2e:	f007 0000 0000 ff00 f807 0000 0000 ff01     ................
60104c3e:	fc07 0000 0000 ff03 fe8f 0000 0000 ff03     ................
60104c4e:	fe8f 0000 0000 ff07 ff8f 0000 0000 ff07     ................
60104c5e:	ff8f 0000 0000 ff0f ffdf 0080 0000 ff0f     ................
60104c6e:	ffdf 0080 0000 ff0f ffdf 0080 0000 ff07     ................
60104c7e:	ffdf 0000 0000 ff03 fedf 0000 0000 ff00     ................
60104c8e:	f8ff 0000 0000 0700 00ff 0000 0000 0000     ................
	...

60104ce4 <_parity>:
60104ce4:	4040 0000 0000 0000 0000 0000 0000 0000     @@..............
	...
60104d00:	0f00 00f0 0000 0000 7f00 00fe 0000 0000     ................
60104d10:	ff03 c0ff 0000 0000 e00f f007 0000 0000     ................
60104d20:	003f fc00 0000 0000 00fc 3f00 0000 0100     ?..........?....
60104d30:	00f0 0f00 0080 0300 00c0 0300 00c0 0700     ................
60104d40:	0080 0100 00e0 0f00 0000 0000 00f0 1e00     ................
60104d50:	0000 0000 0078 3c00 0000 0000 003c 7800     ....x..<....<..x
60104d60:	0000 0000 001e f000 0000 0000 000f e000     ................
60104d70:	0000 0000 0007 c001 0000 0000 8003 c001     ................
60104d80:	0000 0000 8003 8003 0000 0000 c001 8003     ................
60104d90:	0000 0000 c001 8003 0000 0000 c001 0007     ................
60104da0:	0000 1800 e000 0007 0000 7e00 e000 0007     ...........~....
60104db0:	0000 ff01 e000 0007 0000 ff03 e000 000e     ................
60104dc0:	0000 fe0f 7000 000e 0000 fc1f 7000 000e     .....p.......p..
60104dd0:	001c f03f 7000 000e 003e e07f 7000 000e     ..?..p..>....p..
60104de0:	807f 80ff 7000 000e c17f 00ff 7000 000e     .....p.......p..
60104df0:	e37f 00fe 7000 000e f73f 00fc 7000 000e     .....p..?....p..
60104e00:	ff1f 00f8 7000 0007 ff07 00f0 e000 0007     .....p..........
60104e10:	ff03 00e0 e000 0007 ff01 00c0 e000 0007     ................
60104e20:	ff00 0080 e000 8003 ff00 0000 c001 8003     ................
60104e30:	7e00 0000 c001 c003 7c00 0000 c003 c001     .~.......|......
60104e40:	3800 0000 8003 e001 0000 0000 8007 e000     .8..............
60104e50:	0000 0000 0007 7000 0000 0000 000e 7800     .......p.......x
60104e60:	0000 0000 001e 3c00 0000 0000 003c 1e00     .......<....<...
60104e70:	0000 0000 0078 0f00 0000 0000 00f0 0700     ....x...........
60104e80:	0080 0300 00e0 0300 00c0 0700 00c0 0100     ................
60104e90:	00f0 1f00 0080 0000 007c 7e00 0000 0000     ........|..~....
60104ea0:	803f fc03 0000 0000 ff0f f0ff 0000 0000     ?...............
60104eb0:	ff01 80ff 0000 0000 1f00 00f8 0000 0000     ................
	...

60104ee6 <_stop>:
60104ee6:	4040 0000 0000 0000 0000 0000 0000 0000     @@..............
	...
60104f3e:	0000 0300 0080 0000 0000 0700 00c0 0000     ................
60104f4e:	0000 0700 00e0 0000 0000 0700 00f0 0000     ................
60104f5e:	0000 0700 00f8 0000 0000 0300 00fc 0000     ................
60104f6e:	0000 0100 00fe 0700 0000 0000 00fe 0f00     ................
60104f7e:	0080 0000 007f 3f00 0080 0000 803f 7f00     .......?....?...
60104f8e:	0000 0000 c01f fe00 0000 0000 e00f fc01     ................
60104f9e:	0000 0000 f007 f807 0000 0000 f803 e00f     ................
60104fae:	0000 0000 fc01 c01f 0000 0000 fe00 803f     ..............?.
60104fbe:	0000 0000 7f00 00ff 0000 0000 3f00 00fe     .............?..
60104fce:	0000 0000 1f00 00fc 0000 0000 0f00 00f8     ................
60104fde:	0000 0000 0f00 00f0 0000 0000 1f00 00f0     ................
60104fee:	0000 0000 3f00 00f8 0000 0000 7f00 00fc     .....?..........
60104ffe:	0000 0000 fe00 007e 0000 0000 fc01 003f     ......~.......?.
6010500e:	0000 0000 f803 801f 0000 0000 f007 c00f     ................
6010501e:	0000 0000 e00f e007 0000 0000 c01f f003     ................
6010502e:	0000 0000 803f f800 0000 0000 807f 7c00     ....?..........|
6010503e:	0000 0000 00ff 3f00 0000 0100 00fe 1f00     .......?........
6010504e:	0080 0300 00fe 0f00 00c0 0300 00fc 0700     ................
6010505e:	00e0 0300 00fc 0100 00f0 0100 00f8 0000     ................
6010506e:	00f0 0000 00f8 0000 0000 0000 0000 0000     ................
	...

601050e8 <_flash>:
601050e8:	4040 0000 0000 0000 0000 0000 0000 0000     @@..............
	...
60105124:	0000 ff07 00fe 0000 0000 ff0f 00fe 0000     ................
60105134:	0000 ff1f 00fc 0000 0000 ff3f 00f8 0000     ..........?.....
60105144:	0000 ff7f 00f0 0000 0000 ffff 00e0 0000     ................
60105154:	0100 ffff 00c0 0000 0300 ffff 0080 0000     ................
60105164:	0700 ffff 0000 0000 0f00 feff 0000 0000     ................
60105174:	1f00 fcff 0000 0000 3f00 f8ff 0000 0000     .........?......
60105184:	7f00 f0ff 0000 0000 ff00 e0ff 0000 0000     ................
60105194:	ff01 c0ff 0000 0000 ff03 80ff 0000 0000     ................
601051a4:	ff07 00ff 0000 0000 ff0f 00fe 0000 0000     ................
601051b4:	ff1f ffff 00f8 0000 ff3f ffff 00f8 0000     ........?.......
601051c4:	ff7f ffff 00c0 0000 ff7f ffff 0080 0000     ................
601051d4:	1f00 ffff 0000 0000 3f00 feff 0000 0000     .........?......
601051e4:	7f00 f0ff 0000 0000 ff00 e0ff 0000 0000     ................
601051f4:	ff01 c0ff 0000 0000 ff03 80ff 0000 0000     ................
60105204:	ff07 00ff 0000 0000 ff0f 00fe 0000 0000     ................
60105214:	ff1f 00f0 0000 0000 ff3f 00e0 0000 0000     ........?.......
60105224:	ff7f 00c0 0000 0000 ffff 0080 0000 0100     ................
60105234:	ffff 0000 0000 0100 feff 0000 0000 0000     ................
60105244:	f007 0000 0000 0000 e00f 0000 0000 0000     ................
60105254:	c01f 0000 0000 0000 803f 0000 0000 0000     ........?.......
60105264:	007f 0000 0000 0000 00fe 0000 0000 0100     ................
60105274:	00f0 0000 0000 0300 00e0 0000 0000 0700     ................
60105284:	00c0 0000 0000 0700 0080 0000 0000 1f00     ................
60105294:	0000 0000 0000 3e00 0000 0000 0000 7000     .......>.......p
601052a4:	0000 0000 0000 e000 0000 0000 0000 c001     ................
601052b4:	0000 0000 0000 8001 0000 0000 0000 0000     ................
	...

601052ea <_memory>:
601052ea:	4040 0000 0000 0000 0000 0000 0000 0000     @@..............
	...
60105306:	1c00 0000 0000 0000 6300 0000 0000 0000     .........c......
60105316:	9c01 00c0 0000 0000 7f03 0030 0000 0000     ..........0.....
60105326:	ff0c 00cc 0000 0000 ff13 00e3 0000 0000     ................
60105336:	ff6f 80fc 0000 0100 ff9f 60fe 0000 0600     o..........`....
60105346:	ff7f b0ff 0000 1900 ffff 50ff 0000 2700     ...........P...'
60105356:	ffff d0fc 0000 df00 ffff d0f3 0000 3f03     ...............?
60105366:	ffff d0e7 0000 ff04 ffff d09f 0000 ff06     ................
60105376:	ffff d03f 0000 3f07 f8ff d0ff 0000 cf05     ..?....?........
60105386:	e3ff d0ff 0000 e705 cfff d0ff 0000 f905     ................
60105396:	3fff d0ff 0000 fe05 7f7e d0ff 0000 ff05     .?......~.......
601053a6:	ff99 d0ff 0000 3f05 ffc7 d0ff 0000 0f05     .......?........
601053b6:	ffef d0ff 0000 c705 ffef d0ff 0000 f105     ................
601053c6:	ffef d0ff 0000 f805 ff6f d0ff 0000 3e05     ........o......>
601053d6:	ff6f d0ff 0000 0f05 c0ef 5000 0000 c705     o..........P....
601053e6:	9fef ffff 00fc f105 3fef ffff 00fe f805     .........?......
601053f6:	7f6e ffff 00ff fe05 606e 0000 0007 ff05     n.......n`......
60105406:	67ee ffff 00e7 fc05 65ee a434 00a7 fe05     .g.......e4.....
60105416:	656e a434 c0a7 9f05 6dee a434 e0af a705     ne4......m4.....
60105426:	6fee ffff f0ff b905 72ee 0000 7000 be05     .o.......r...p..
60105436:	7eee 5a53 7069 be05 3eef 5a53 7069 be05     .~SZip...>SZip..
60105446:	9eef 5a53 7069 be05 ceef 5ad3 7069 be05     ..SZip.....Zip..
60105456:	eeef ffff 70ff be05 efef 0000 f000 be05     .....p..........
60105466:	f7ef ffff e0ff be05 f3ef ffff c0ff be05     ................
60105476:	f8ef 8011 0000 be05 ffef 00e6 0000 be05     ................
60105486:	ffef 0098 0000 fe04 feef 0060 0000 3e03     ..........`....>
60105496:	fcef 00c0 0000 de00 f3ef 0000 0000 6600     ...............f
601054a6:	ccef 0000 0000 1900 b0ef 0000 0000 0e00     ................
601054b6:	606e 0000 0000 0300 8089 0000 0000 0000     n`..............
601054c6:	0066 0000 0000 0000 0038 0000 0000 0000     f.......8.......
	...

601054ec <_barcode>:
601054ec:	4040 0000 0000 0000 0000 0000 0000 0000     @@..............
	...
6010550c:	0000 f3cc f033 f0cc cffc f3cc f033 f0cc     ....3.......3...
6010551c:	cffc f3cc f033 f0cc cffc f3cc f033 f0cc     ....3.......3...
6010552c:	cffc f3cc f033 f0cc cffc f3cc f033 f0cc     ....3.......3...
6010553c:	cffc f3cc f033 f0cc cffc f3cc f033 f0cc     ....3.......3...
6010554c:	cffc f3cc f033 f0cc cffc f3cc f033 f0cc     ....3.......3...
6010555c:	cffc f3cc f033 f0cc cffc f3cc f033 f0cc     ....3.......3...
6010556c:	cffc f3cc f033 f0cc cffc f3cc f033 f0cc     ....3.......3...
6010557c:	cffc f3cc f033 f0cc cffc f3cc f033 f0cc     ....3.......3...
6010558c:	cffc f3cc f033 f0cc cffc f3cc f033 f0cc     ....3.......3...
6010559c:	cffc f3cc f033 f0cc cffc f3cc f033 f0cc     ....3.......3...
601055ac:	cffc f3cc f033 f0cc cffc f3cc f033 f0cc     ....3.......3...
601055bc:	cffc f3cc f033 f0cc cffc f3cc f033 f0cc     ....3.......3...
601055cc:	cffc f3cc f033 f0cc cffc f3cc f033 f0cc     ....3.......3...
601055dc:	cffc f3cc f033 f0cc cffc f3cc f033 f0cc     ....3.......3...
601055ec:	cffc f3cc f033 f0cc cffc f3cc f033 f0cc     ....3.......3...
601055fc:	cffc f3cc f033 f0cc cffc f3cc f033 f0cc     ....3.......3...
6010560c:	cffc f3cc f033 f0cc cffc f3cc f033 f0cc     ....3.......3...
6010561c:	cffc f3cc f033 f0cc cffc f3cc f033 f0cc     ....3.......3...
6010562c:	cffc f3cc f033 f0cc cffc f3cc f033 f0cc     ....3.......3...
6010563c:	cffc f3cc f033 f0cc cffc f3cc f033 f0cc     ....3.......3...
6010564c:	cffc f3cc f033 f0cc cffc f3cc f033 f0cc     ....3.......3...
6010565c:	cffc f3cc f033 f0cc cffc f3cc f033 f0cc     ....3.......3...
6010566c:	cffc f3cc f033 f0cc cffc f3cc f033 f0cc     ....3.......3...
6010567c:	cffc f3cc f033 f0cc cffc f3cc f033 f0cc     ....3.......3...
6010568c:	cffc f3cc f033 f0cc cffc f3cc f033 f0cc     ....3.......3...
6010569c:	cffc f3cc f033 f0cc cffc f3cc f033 f0cc     ....3.......3...
601056ac:	cffc f3cc f033 f0cc cffc f3cc f033 f0cc     ....3.......3...
601056bc:	cffc f3cc f033 f0cc cffc f3cc f033 f0cc     ....3.......3...
601056cc:	cffc 0000 0000 0000 0000 0000 0000 0000     ................
	...

601056ee <_display>:
601056ee:	4040 0000 0000 0000 0000 0000 0000 0000     @@..............
	...
60105712:	0000 0700 0000 0000 0000 0f00 0080 0000     ................
60105722:	0000 3f00 00c0 0000 0000 7f00 00f0 0000     ...?............
60105732:	0000 f901 00d8 0000 0000 e007 00ec 0000     ................
60105742:	0000 c00f 0076 0000 0000 001f 003b 0000     ....v.......;...
60105752:	0000 003e 801d 0000 0000 007c c00e 0000     ..>.......|.....
60105762:	0000 00f8 6007 0000 0100 00f0 f003 0000     .....`..........
60105772:	0100 00e0 f001 0000 0300 0080 f800 0000     ................
60105782:	0700 0000 7800 0000 0f00 0000 fc00 0000     .....x..........
60105792:	3f00 0000 f801 0000 7f00 0000 f803 0000     .?..............
601057a2:	fb00 0080 f007 0000 f101 00c0 f00f 0000     ................
601057b2:	f103 00e0 e01f 0000 fb0f 00f0 c03f 0000     ............?...
601057c2:	ff1f 00f8 807f 0000 fc3f 007c 00ff 0000     ........?.|.....
601057d2:	387f 013e 00fe 0100 b8ff 033e 00fc 0300     .8>.......>.....
601057e2:	f8ff 073f 00f8 0700 fcf3 8f7f 00f0 1f00     ..?.............
601057f2:	fff3 fff9 0080 3f00 ffff fff0 0000 ff00     .......?........
60105802:	7f9e fcf9 0000 ff01 7e9e f8ff 0000 ff03     .........~......
60105812:	feff e07f 0000 fc07 fff3 c0ff 0000 fc0f     ................
60105822:	e7f3 80ff 0000 ff0f e7ff 00fe 0000 cf1f     ................
60105832:	ff9f 00fe 0000 cf38 3f9f 00f8 0000 ff78     ......8..?....x.
60105842:	3fff 00f0 0000 ff78 ffff 00e0 0000 19ff     .?....x.........
60105852:	fff9 0080 0000 19ff fff9 0000 0000 1f7f     ................
60105862:	feff 0000 0000 ff7f fcff 0000 0000 e33f     ..............?.
60105872:	f89f 0000 0000 e31f f09f 0000 0000 e30f     ................
60105882:	e0ff 0000 0000 fc07 c07f 0000 0000 fc03     ................
60105892:	807f 0000 0000 fc01 007f 0000 0000 ff00     ................
601058a2:	00fe 0000 0000 7f00 00f8 0000 0000 3f00     ...............?
601058b2:	00e0 0000 0000 1f00 00c0 0000 0000 0f00     ................
	...

601058f0 <_protocol>:
601058f0:	4040 0000 0000 0000 0000 0000 0000 0000     @@..............
	...
60105934:	ff07 00c0 0000 0000 ff3f 00f8 0000 0000     ........?.......
60105944:	00fe 00fe 0000 0300 00f0 001f 0000 0700     ................
60105954:	00c0 c107 0080 0f00 7f00 e3f1 00c0 1e00     ................
60105964:	ff01 fffc 00c0 3c00 e007 7f3f 00e0 7800     .......<..?....x
60105974:	000f bc0f 00e0 7000 001e d803 00e0 e000     .......p........
60105984:	003c c001 00e0 e000 0078 c007 0060 c001     <.......x...`...
60105994:	00f0 000f 0060 c001 00e0 000f 0060 8103     ....`.......`...
601059a4:	00c0 800f 0070 8103 00c0 e007 0070 0103     ....p.......p...
601059b4:	0080 f801 0070 0303 0080 7c00 0030 0307     ....p......|0...
601059c4:	0080 1f00 0030 0307 0080 0700 00f0 0307     ....0...........
601059d4:	0080 0300 00ff 0307 0080 0000 80ff 0307     ................
601059e4:	0080 0700 80ff 0307 0080 0f00 80ff 0307     ................
601059f4:	0080 0f00 80ff 0107 0080 0700 80ff 0707     ................
60105a04:	00c0 0700 80ff 3f03 0080 0700 80ff fe03     .......?........
60105a14:	0000 0700 80ff fe03 0000 0700 80ff df01     ................
60105a24:	0000 0700 80ff 1f00 00c0 0700 00ff 1f00     ................
60105a34:	00f0 0700 00ff 1f00 00fc 0700 00ff 0f00     ................
60105a44:	00ff 0f00 00fe 0f00 80ff 0f00 00fe 0f00     ................
60105a54:	00ff 0f00 00fc 0f00 00fe 1f00 00fc 0f00     ................
60105a64:	00f8 3f00 00f8 0f00 00f8 7f00 00f0 0f00     ...?............
60105a74:	00fe ff00 00f0 0700 00bf ff01 00e0 0700     ................
60105a84:	c01f ff07 00c0 0400 fc0f ffff 0080 0000     ................
60105a94:	ff03 feff 0000 0000 ff01 fcff 0000 0000     ................
60105aa4:	7f00 f0ff 0000 0000 1f00 c0ff 0000 0000     ................
60105ab4:	0100 00fc 0000 0000 0000 0000 0000 0000     ................
	...

60105af2 <_comp>:
60105af2:	4040 0000 0000 0000 0000 0000 0000 0000     @@..............
	...
60105b3a:	0000 0100 8181 8181 0080 0100 c183 c183     ................
60105b4a:	0080 0100 e187 e187 0080 0100 718e 718e     .............q.q
60105b5a:	0080 0100 318c 318c 0080 0100 318c 318c     .....1.1.....1.1
60105b6a:	0080 0100 318c 318c 0080 0100 318c 318c     .....1.1.....1.1
60105b7a:	0080 0100 318c 318c 0080 0100 318c 318c     .....1.1.....1.1
60105b8a:	0080 0100 318c 318c 0080 0100 318c 318c     .....1.1.....1.1
60105b9a:	0080 0100 318c 318c 0080 0100 718e 718e     .....1.1.....q.q
60105baa:	0080 0100 e187 e187 0080 0100 c183 c183     ................
60105bba:	0080 0100 8181 8181 0080 0000 0000 0000     ................
	...
60105c02:	0000 ff00 ffff ffff 00ff ff01 ffff ffff     ................
60105c12:	80ff 8003 0000 0000 c001 0007 0000 0000     ................
60105c22:	e000 0006 0000 0000 6000 1806 0106 6080     .........`.....`
60105c32:	6018 3c06 030f f0c0 603c 3c06 030f f0c0     .`.<....<`.<....
60105c42:	603c 3c06 030f f0c0 603c 1806 0106 6080     <`.<....<`.....`
60105c52:	6018 0006 0000 0000 6000 0006 0000 0000     .`.......`......
60105c62:	6000 0006 0000 0000 6000 0007 30c0 030c     .`.......`...0..
60105c72:	e000 8103 78e0 071e c081 c101 78e0 071e     .....x.......x..
60105c82:	8083 e100 78e0 071e 0087 7000 30c0 030c     .....x.....p.0..
60105c92:	000e 3800 0000 0000 001c 1c00 0000 0000     ...8............
60105ca2:	0038 0e00 0000 0000 0070 0700 ffff ffff     8.......p.......
60105cb2:	00e0 0300 ffff ffff 00c0 0000 0000 0000     ................
	...

60105cf4 <_version>:
60105cf4:	4040 0000 0000 0000 0000 0000 0000 0000     @@..............
60105d04:	0000 0000 0f00 00f8 0000 0000 ff00 80ff     ................
60105d14:	0000 0000 ff07 f0ff 0000 0000 ff7f feff     ................
60105d24:	0000 0100 00ff 7f00 0080 0300 00f8 0f00     ................
60105d34:	00c0 0700 00e0 0700 00e0 1f00 0080 0100     ................
60105d44:	00f8 3e00 0000 0000 007c 7c00 0000 0000     ...>....|..|....
60105d54:	003e f800 0000 0000 001f f001 0000 0000     >...............
60105d64:	800f e003 0000 0000 c007 c003 0000 003f     ..............?.
60105d74:	c003 8007 0000 c07f e001 0007 0000 e0ff     ................
60105d84:	f000 0007 0100 70fc 7000 000e 0100 78f8     .......p.p.....x
60105d94:	7000 000e 0100 3cf8 7000 000c 0000 7cf8     .p.....<.p.....|
60105da4:	3800 001c 0000 fe60 3800 001c 0000 fe01     .8....`..8......
60105db4:	3800 001c 0000 fc07 1c00 001c 0000 fc1f     .8..............
60105dc4:	1c00 001c 0300 f8ff 1c00 001c 0f00 f0ff     ................
60105dd4:	1c00 001c 1f00 e0ff 1c00 001c 3f00 c0ff     .............?..
60105de4:	1c00 001c 7800 0000 3c00 001e 301f 0000     .....x...<...0..
60105df4:	3c00 001e 803f 0000 3c00 001e 803f 0000     .<..?....<..?...
60105e04:	7c00 001f 803f 0000 7c00 001f 803f 0000     .|..?....|..?...
60105e14:	7c00 801f 803f 0000 fc00 c01f 001f 0000     .|..?...........
60105e24:	fc01 e01f 0000 0000 fc03 f01f 0000 0000     ................
60105e34:	fc07 f81f 0000 0000 fc1f fc1f 0000 0000     ................
60105e44:	fc3f ff1f 0000 0000 f8ff ff1f 00c0 0100     ?...............
60105e54:	f8ff ff1f 00e0 0700 f0ff ff1f 00f8 0f00     ................
60105e64:	f0ff ff0f e0ff ff07 f0ff ff07 ffff ffff     ................
60105e74:	f0ff ff07 ffff ffff e0ff ff03 ffff ffff     ................
60105e84:	e0ff ff03 ffff ffff c0ff ff01 ffff ffff     ................
60105e94:	80ff ff00 ffff ffff 00ff 7f00 ffff ffff     ................
60105ea4:	00fe 3f00 ffff ffff 00fc 1f00 ffff ffff     ...?............
60105eb4:	00f8 0700 ffff ffff 00e0 0300 ffff ffff     ................
60105ec4:	00c0 0100 ffff ffff 0080 0000 ff3f fcff     ............?...
60105ed4:	0000 0000 ff07 f0ff 0000 0000 ff00 80ff     ................
60105ee4:	0000 0000 0f00 00f8 0000 0000 0000 0000     ................
	...

60105ef6 <_transmit>:
60105ef6:	4040 0000 0000 0000 0000 0000 0000 0000     @@..............
	...
60105f12:	1e00 0000 0000 0000 7f00 0080 0000 0000     ................
60105f22:	ff00 00c0 0000 0000 ff01 00e0 0000 0000     ................
60105f32:	ff03 00f0 0000 0000 f907 00fc 0000 0000     ................
60105f42:	f00f 00fe 0000 0000 e01f 007f 0000 0000     ................
60105f52:	e03f 803f 0000 0000 f0ff c03f 0000 0100     ?.?.......?.....
60105f62:	f8fd f01f 0000 0300 fcfc f80f 0000 0700     ................
60105f72:	7cf8 fc0f 0000 0f00 3ef0 fe0f 0000 1f00     .|.......>......
60105f82:	3ef0 ff07 0000 3f00 1ff8 ff07 0080 7f00     .>.....?........
60105f92:	0ffc ff03 00e0 ff00 0ffc ff03 00f0 ff01     ................
60105fa2:	0ffc ff03 00f8 f803 0ffe ff83 00fc f007     ................
60105fb2:	0f7e ff83 00fe e007 0f3e ff83 00fe e00f     ~.......>.......
60105fc2:	0f3e ff83 00fe e00f 0f3e ff83 00fe f00f     >.......>.......
60105fd2:	0f7c ff03 00fe f80e 0ffc ff03 009e 7f0e     |...............
60105fe2:	0ffc ff03 003e 3f0f 1ff8 fe03 007e 9f0f     ....>..?....~...
60105ff2:	3ef0 fc07 00fe cf0f 3ee0 f907 00fe e30f     .>.......>......
60106002:	3ce0 f30f 00fe f90f fcf0 e70f 00fe fc0f     .<..............
60106012:	f8f8 cf0f 00fe fe0f f07d 9f1f 00fe ff0f     ........}.......
60106022:	e03f 3f1f 00fe ff0f c09f 7f3e 00fc ff07     ?..?......>.....
60106032:	c0c7 ff7c 00f8 ff03 e0f3 fff9 00f0 ff01     ..|.............
60106042:	f1f9 fff3 00e0 ff00 fbfc ffe7 00c0 3f00     ...............?
60106052:	7ffe ffcf 0080 1f00 3fff ff9f 0000 0f00     .........?......
60106062:	bfff feff 0000 0700 ffff fcff 0000 0300     ................
60106072:	ffff f8ff 0000 0100 ffff f0ff 0000 0000     ................
60106082:	ffff e0ff 0000 0000 ff7f c0ff 0000 0000     ................
60106092:	ff3f 80ff 0000 0000 ff1f 00ff 0000 0000     ?...............
601060a2:	ff07 00fe 0000 0000 ff03 00fc 0000 0000     ................
601060b2:	ff01 00f8 0000 0000 ff00 00f0 0000 0000     ................
601060c2:	7f00 00e0 0000 0000 0000 0000 0000 0000     ................
	...

601060f8 <_trash>:
601060f8:	4040 0000 0000 0000 0000 0000 0000 0000     @@..............
	...
6010614c:	ff00 80ff 0000 0000 ff03 c0ff 0000 0000     ................
6010615c:	fe07 e0ff 0000 0000 fc07 f07f 0000 0000     ................
6010616c:	fe0f f83f 0000 0000 fc0f f81f 0000 0000     ..?.............
6010617c:	fc1f fd1f 0080 0000 f83f ff0f 0080 0000     ........?.......
6010618c:	f03f ff0f 0000 0000 f07f ff07 0000 0000     ?...............
6010619c:	e07f fe03 0000 0000 e01f fe03 0000 0000     ................
601061ac:	c007 fe07 0000 0000 8003 fc0f 0000 0000     ................
601061bc:	8000 0000 0040 1f00 00f0 0100 00e0 0700     ....@...........
601061cc:	00f0 0700 00e0 0700 00f8 0f00 00f0 0f00     ................
601061dc:	00f8 3f00 00f8 1f00 00fc 1f00 00f8 1f00     ...?............
601061ec:	00fc 1f00 00fc 3f00 00f6 0f00 00fc 3f00     .......?.......?
601061fc:	00f0 0f00 00fe 3f00 00e0 0700 00fe 3f00     .......?.......?
6010620c:	00e0 0300 00fe 3f00 00c0 0300 00fe 1f00     .......?........
6010621c:	00c0 0100 00fc 1f00 0080 0100 00fc 0f00     ................
6010622c:	0080 0000 00f8 0f00 0000 0000 0038 0e00     ............8...
6010623c:	0000 0004 0038 0600 0000 000c 0070 0600     ....8.......p...
6010624c:	fc3f ff1f 00e0 0200 fc7f ff3f 00c0 0300     ?.........?.....
6010625c:	fcff ff7f 00c0 0100 fcff ffff 0080 0000     ................
6010626c:	fdff ffff 0080 0000 fc7f ffff 0000 0000     ................
6010627c:	fc7f fe7f 0000 0000 fc3f fe3f 0000 0000     ........?.?.....
6010628c:	fc1f fc1f 0000 0000 0000 000c 0000 0000     ................
6010629c:	0000 0004 0000 0000 0000 0000 0000 0000     ................
	...

601062fa <_tools>:
601062fa:	4040 0000 80ff 0000 0000 0100 e0ff 0000     @@..............
6010630a:	0000 0100 1898 0000 8007 0000 0cc8 0000     ................
6010631a:	600c 0000 0244 0000 b018 0000 0122 0000     .`..D......."...
6010632a:	7031 0000 0131 0080 2861 0000 8019 0080     1p..1...a(......
6010633a:	9840 0000 800c 0040 6840 0000 4006 0040     @.....@.@h...@@.
6010634a:	0840 3c00 4002 0040 3880 7e00 4002 0040     @..<.@@..8.~.@@.
6010635a:	7080 c500 4002 0120 6004 c500 4082 0220     .p...@ ..`...@ .
6010636a:	c003 8800 40c6 0420 800f 8801 4044 0820     .....@ .....D@ .
6010637a:	0018 8801 8038 1020 0030 8801 8011 2020     ....8. .0.....  
6010638a:	0060 8801 000b 4020 00c0 8801 0004 8140     `..... @......@.
6010639a:	0080 8801 0000 0321 0000 8400 0000 0622     ......!.......".
601063aa:	0000 fc00 0000 0c16 0000 fc00 0000 181c     ................
601063ba:	0000 7e00 0000 3008 0000 3f00 0e00 6010     ...~...0...?...`
601063ca:	0000 3f00 3180 c0a0 0000 0f00 60c0 8041     ...?.1.......`A.
601063da:	0000 0700 a0f8 0083 0000 0000 21ff 0006     .............!..
601063ea:	0000 0000 213a 000d 0000 0000 317e 0017     ....:!......~1..
601063fa:	0000 0000 18c0 80f2 0000 0100 0c80 8002     ................
6010640a:	0000 0100 0600 4002 0000 0300 0300 4002     .......@.......@
6010641a:	0000 0600 0100 2086 0000 0400 0000 20fc     ....... ....... 
6010642a:	0000 0800 0604 1038 0000 1800 0302 10f0     ......8.........
6010643a:	0000 3400 0303 08f0 0000 6e00 8101 08e0     ...4.......n....
6010644a:	0000 5a00 e300 07f0 00c0 d200 7f00 04f8     ...Z............
6010645a:	0030 a101 1f80 00fc 0008 4103 0780 00be     0..........A....
6010646a:	0004 8302 07c0 001f 0004 0605 0e20 000f     ............ ...
6010647a:	0002 0c0d 1c30 800f 0003 181a 380e 8007     ....0........8..
6010648a:	0061 3014 f019 8003 00f1 6028 e030 8003     a..0......(`0...
6010649a:	80f1 c068 c061 8103 8038 8150 80c3 8103     ..h.a...8.P.....
601064aa:	801c 0351 0007 8103 801e 0642 000e 8103     ..Q.......B.....
601064ba:	000f 0c64 001c c003 0087 1828 0038 c003     ..d.......(.8...
601064ca:	0080 3034 00e0 e001 0040 6110 00c0 e001     ..40....@..a....
601064da:	0020 c318 0080 f000 0020 4706 0000 7c00      ....... ..G...|
601064ea:	0010 0e03 0000 1f00 00f0 fc01 0000 0700     ................
601064fa:	0080                                        ..

601064fc <_scroll>:
601064fc:	4040 0000 0000 0000 0000 0000 0030 0000     @@..........0...
6010650c:	0000 0000 0078 0000 0000 0000 00cc 0000     ....x...........
6010651c:	0000 0100 0086 0000 0000 0300 0003 0000     ................
6010652c:	0000 0600 8001 0000 0000 0c00 c000 0000     ................
6010653c:	0000 1800 6000 0000 0000 3000 3000 0000     .....`.....0.0..
6010654c:	0000 6000 1800 0000 0000 c000 0c0c 0000     ...`............
6010655c:	0000 8001 0606 0000 0000 0003 0303 0000     ................
6010656c:	0078 0006 8101 0080 00fc 000c c0c0 ffff     x...............
6010657c:	80ff 0018 6060 ff7f c0ff 0030 3030 0030     ....``....0.000.
6010658c:	6000 0030 1818 0018 3000 0c18 0c0c 010f     .`0......0......
6010659c:	18f8 060c 0606 0707 0cfc 0306 0303 fc03     ................
601065ac:	0c06 0103 8181 fc01 0c03 8001 c0c0 ff00     ................
601065bc:	8f81 c000 6060 ff01 cfc0 6000 2030 0003     ....``.....`0 ..
601065cc:	fb60 3000 0018 0006 f330 1800 000c f80f     `..0....0.......
601065dc:	e318 0c00 0006 fc1f c30c 0600 0002 0630     ..............0.
601065ec:	830f 0300 0000 0360 030f 0f00 f8ff 81df     ......`.........
601065fc:	038e 1f00 ffff c09f 03cc 3000 0300 60f0     ...........0...`
6010660c:	03f8 7000 0300 30f0 03f0 ff00 ffff 18fc     ...p...0........
6010661c:	03e0 ff01 ffff 0cfc 03c0 0003 0000 0f06     ................
6010662c:	0380 0003 0000 0f03 0300 0f03 00fc 8e01     ................
6010663c:	0300 0f03 00fc cc00 0300 0003 0000 f800     ................
6010664c:	0300 0003 0000 f000 0300 0f03 fcff e000     ................
6010665c:	0600 0f03 fcff c000 0c00 0007 0000 8001     ................
6010666c:	1800 000f 0000 0003 3000 0c1b c0cc 0006     .........0......
6010667c:	6000 0c33 c0cc 000c c000 ff3f ffff 00f8     .`3.......?.....
6010668c:	8001 ff3f ffff 00f0 0003 0020 0000 0030     ..?....... ...0.
6010669c:	0006 0020 0000 0030 000c ff3f ffff 00f8     .. ...0...?.....
601066ac:	0018 ff3f ffff 00fc 0030 000c 0000 000c     ..?.....0.......
601066bc:	0060 0004 0000 0004 00c0 0006 0000 0106     `...............
601066cc:	0080 0002 0000 0303 0000 0003 0000 0603     ................
601066dc:	0000 0001 0000 0c01 0000 8001 0000 f800     ................
601066ec:	0000 c000 0000 f000 0000 7f00 ffff c0ff     ................
	...

601066fe <_scan>:
601066fe:	4040 0000 0000 0000 0000 0000 0000 0000     @@..............
	...
6010671e:	0000 f3cc f033 f0cc cffc f3cc f033 f0cc     ....3.......3...
6010672e:	cffc f3cc f033 f0cc cffc f3cc f033 f0cc     ....3.......3...
6010673e:	cffc f3cc f033 f0cc cffc f3cc f033 f0cc     ....3.......3...
6010674e:	cffc f3cc f033 f0cc cffc f3cc f033 f0cc     ....3.......3...
6010675e:	cffc f3cc f033 f0cc cffc f3cc f033 f0cc     ....3.......3...
6010676e:	cffc f3cc f033 f0cc cffc f3cc f033 f0cc     ....3.......3...
6010677e:	cffc f3cc f033 f0cc cffc f3cc f033 f0cc     ....3.......3...
6010678e:	cffc f3cc f033 f0cc cffc f3cc f033 f0cc     ....3.......3...
6010679e:	cffc f3cc f033 f0cc cffc f3cc f033 f0cc     ....3.......3...
601067ae:	cffc f3cc f033 f0cc fffc f3cc f033 f0cc     ....3.......3...
601067be:	ffff f3cc f033 f3cc ffff f3cc f033 ffcc     ....3.......3...
601067ce:	ffff f3cc f033 ffff ffff f3cc f733 ffff     ....3.......3...
601067de:	cfff f3cc ff33 ffff cffc f3cc ff7f feff     ....3...........
601067ee:	cffc ffcc ffff f0ff cffc ffcf ffff f0ec     ................
601067fe:	cffc ffff fcff f0cc cffc ffff f0ff f0cc     ................
6010680e:	cffc ffff f0f3 f0cc cffc fbff f033 f0cc     ............3...
6010681e:	cffc f3fe f033 f0cc cffc f3cc f033 f0cc     ....3.......3...
6010682e:	cffc f3cc f033 f0cc cffc f3cc f033 f0cc     ....3.......3...
6010683e:	cffc f3cc f033 f0cc cffc f3cc f033 f0cc     ....3.......3...
6010684e:	cffc f3cc f033 f0cc cffc f3cc f033 f0cc     ....3.......3...
6010685e:	cffc f3cc f033 f0cc cffc f3cc f033 f0cc     ....3.......3...
6010686e:	cffc f3cc f033 f0cc cffc f3cc f033 f0cc     ....3.......3...
6010687e:	cffc f3cc f033 f0cc cffc f3cc f033 f0cc     ....3.......3...
6010688e:	cffc f3cc f033 f0cc cffc f3cc f033 f0cc     ....3.......3...
6010689e:	cffc f3cc f033 f0cc cffc f3cc f033 f0cc     ....3.......3...
601068ae:	cffc f3cc f033 f0cc cffc f3cc f033 f0cc     ....3.......3...
601068be:	cffc f3cc f033 f0cc cffc f3cc f033 f0cc     ....3.......3...
601068ce:	cffc f3cc f033 f0cc cffc f3cc f033 f0cc     ....3.......3...
601068de:	cffc 0000 0000 0000 0000 0000 0000 0000     ................
	...
601068fe:	0000 024e 6010 0252 6010 025a 6010 026a     ..N..`R..`Z..`j.
6010690e:	6010 025e 6010 0262 6010 0266 6010          .`^..`b..`f..`

6010691c <C.20.3440>:
6010691c:	7410 6010 ffff ffff 7418 6010 0001 0000     .t.`.....t.`....
6010692c:	7420 6010 0002 0000 7428 6010 0000 0000      t.`....(t.`....

6010693c <C.21.3447>:
6010693c:	7410 6010 ffff ffff 7438 6010 0001 0000     .t.`....8t.`....
6010694c:	7440 6010 0002 0000 7448 6010 0003 0000     @t.`....Ht.`....
6010695c:	7450 6010 0004 0000 7458 6010 0005 0000     Pt.`....Xt.`....
6010696c:	7460 6010 0006 0000 7468 6010 0007 0000     `t.`....ht.`....

6010697c <C.22.3453>:
6010697c:	7410 6010 ffff ffff 7470 6010 0001 0000     .t.`....pt.`....
6010698c:	7478 6010 0002 0000 7480 6010 0003 0000     xt.`.....t.`....

6010699c <C.23.3459>:
6010699c:	7410 6010 ffff ffff 7484 6010 0007 0000     .t.`.....t.`....
601069ac:	7490 6010 0008 0000                         .t.`....

601069b4 <C.24.3465>:
601069b4:	7410 6010 ffff ffff 749c 6010 0001 0000     .t.`.....t.`....
601069c4:	74a8 6010 0002 0000                         .t.`....

601069cc <C.25.3471>:
601069cc:	7410 6010 0000 0000 0000 0000 76b8 6010     .t.`.........v.`
601069dc:	5af2 6010 0d39 6010 74b4 6010 50e8 6010     .Z.`9..`.t.`.P.`
601069ec:	0d71 6010 74c0 6010 4ce4 6010 0dad 6010     q..`.t.`.L.`...`
601069fc:	74c8 6010 4ae2 6010 0de9 6010 74d4 6010     .t.`.J.`...`.t.`
60106a0c:	4ee6 6010 0e21 6010                         .N.`!..`

60106a14 <C.26.3477>:
60106a14:	7410 6010 ffff ffff 74e0 6010 0001 0000     .t.`.....t.`....
60106a24:	74ec 6010 0002 0000 0f66 6010 0f50 6010     .t.`....f..`P..`
60106a34:	0f5a 6010 0f66 6010 0f66 6010               Z..`f..`f..`

60106a40 <C.31.3513>:
60106a40:	7410 6010 ffff ffff 7538 6010 0004 0000     .t.`....8u.`....
60106a50:	7548 6010 0002 0000 7558 6010 0001 0000     Hu.`....Xu.`....
60106a60:	7568 6010 0020 0000 7578 6010 0010 0000     hu.` ...xu.`....
60106a70:	7588 6010 0008 0000 7598 6010 2000 0000     .u.`.....u.`. ..
60106a80:	75a8 6010 4000 0000 75b8 6010 8000 0000     .u.`.@...u.`....
60106a90:	75c8 6010 1000 0000 75d8 6010 0100 0000     .u.`.....u.`....
60106aa0:	75e8 6010 0200 0000 75f8 6010 0400 0000     .u.`.....u.`....
60106ab0:	7608 6010 0080 0000 7618 6010 0040 0000     .v.`.....v.`@...
60106ac0:	7628 6010 0000 0001 7638 6010 0000 0002     (v.`....8v.`....
60106ad0:	7648 6010 0000 0004 7658 6010 0000 0008     Hv.`....Xv.`....
60106ae0:	7668 6010 0000 0010 7678 6010 0800 0000     hv.`....xv.`....

60106af0 <C.32.3523>:
60106af0:	7410 6010 0000 0000 0000 0000 76b4 6010     .t.`.........v.`
60106b00:	46de 6010 0e59 6010 76c0 6010 58f0 6010     .F.`Y..`.v.`.X.`
60106b10:	0e89 6010 76cc 6010 56ee 6010 0ebd 6010     ...`.v.`.V.`...`
60106b20:	76d4 6010 54ec 6010 0f95 6010 76e0 6010     .v.`.T.`...`.v.`
60106b30:	52ea 6010 0fd1 6010                         .R.`...`

60106b38 <C.41.3584>:
	...

60106c00 <C.42.3594>:
60106c00:	791c 6010 66fe 6010 0b09 6010 7928 6010     .y.`.f.`...`(y.`
60106c10:	64fc 6010 0c31 6010 7938 6010 5ef6 6010     .d.`1..`8y.`.^.`
60106c20:	1069 6010 7948 6010 60f8 6010 102d 6010     i..`Hy.`.`.`-..`
60106c30:	7958 6010 62fa 6010 0ffd 6010 7964 6010     Xy.`.b.`...`dy.`
60106c40:	44dc 6010 12c1 6010 7970 6010 5cf4 6010     .D.`...`py.`.\.`
60106c50:	1265 6010                                   e..`

60106c54 <C.5.3019>:
	...

60106c68 <_uncheck>:
60106c68:	2020 0000 0000 0000 0000 0000 0000 0000       ..............
	...
60106c8c:	0000 ff7f 00fc ff7f 00fc 0060 000c 0060     ..........`...`.
60106c9c:	000c 0060 000c 0060 000c 0060 000c 0060     ..`...`...`...`.
60106cac:	000c 0060 000c 0060 000c 0060 000c 0060     ..`...`...`...`.
60106cbc:	000c 0060 000c 0060 000c 0060 000c 0060     ..`...`...`...`.
60106ccc:	000c 0060 000c 0060 000c 0060 000c 0060     ..`...`...`...`.
60106cdc:	000c ff7f 00fc ff7f 00fc 0000 0000          ..............

60106cea <_checked>:
60106cea:	2020 0000 0000 0000 8000 0000 e001 0000       ..............
60106cfa:	f001 0000 f803 0000 f007 0000 e007 0000     ................
60106d0a:	e00f 0000 c01f ff7f 80df ff7f 00bf 0060     ..............`.
60106d1a:	003e 0066 007c 006f 00fc 006f 00f8 817f     >.f.|.o...o.....
60106d2a:	00f4 837f 00ec c36f 00cc c767 00cc ef63     ......o...g...c.
60106d3a:	008c ef63 000c fe61 000c fc60 000c f860     ..c...a...`...`.
60106d4a:	000c 7860 000c 7060 000c 3060 000c 2060     ..`x..`p..`0..` 
60106d5a:	000c 0060 000c ff7f 00fc ff7f 00fc 0000     ..`.............
	...

60106d6c <_select>:
60106d6c:	0820 ff7f feff ffff ffff 2fc4 410c efbd      ........../.A..
60106d7c:	f77b 6fcc f71b eff5 f77b 218c 770c ffff     {..o....{..!.w..
60106d8c:	ffff                                        ..

60106d8e <_down_arrow>:
60106d8e:	0808 e77e e7e7 c381 ffe7                    ..~.......

60106d98 <_up_arrow>:
60106d98:	0808 e77e 81c3 e7e7 ffe7                    ..~.......

60106da2 <_exitsign>:
60106da2:	4040 0000 0000 0000 0000 0000 0000 0000     @@..............
	...
60106e06:	ff1f f8ff 0000 0000 ff3f fcff 0000 0000     ........?.......
60106e16:	0070 0e00 0000 0000 0060 0600 0000 0000     p.......`.......
60106e26:	d967 e6b7 0000 0000 d967 e6b7 0000 0000     g.......g.......
60106e36:	0f66 8631 0000 0000 8667 8631 0000 0000     f.1.....g.1.....
60106e46:	8667 8631 0000 0000 0f66 8631 0000 0000     g.1.....f.1.....
60106e56:	d967 86b1 0000 0000 d967 86b1 0000 0000     g.......g.......
60106e66:	0060 0600 0000 0000 0060 0600 0000 0000     `.......`.......
60106e76:	0160 06fc 0000 0000 0060 06fc 0000 0000     `.......`.......
60106e86:	0060 067c 0000 0000 0060 06fc 0000 0000     `.|.....`.......
60106e96:	0160 06fc 0000 0000 0360 06ec 0000 0000     `.......`.......
60106ea6:	0760 06c4 0000 0000 0f60 0680 0000 0000     `.......`.......
60106eb6:	1f60 0600 0000 0000 3e60 0600 0000 0000     `.......`>......
60106ec6:	3c60 0600 0000 0000 1860 0600 0000 0000     `<......`.......
60106ed6:	0060 0600 0000 0000 0070 0e00 0000 0000     `.......p.......
60106ee6:	ff3f fcff 0000 0000 ff1f f8ff 0000 0000     ?...............
	...

60106fa4 <_ctype_>:
60106fa4:	2000 2020 2020 2020 2020 2828 2828 2028     .         ((((( 
60106fb4:	2020 2020 2020 2020 2020 2020 2020 2020                     
60106fc4:	8820 1010 1010 1010 1010 1010 1010 1010      ...............
60106fd4:	0410 0404 0404 0404 0404 1004 1010 1010     ................
60106fe4:	1010 4141 4141 4141 0101 0101 0101 0101     ..AAAAAA........
60106ff4:	0101 0101 0101 0101 0101 0101 1010 1010     ................
60107004:	1010 4242 4242 4242 0202 0202 0202 0202     ..BBBBBB........
60107014:	0202 0202 0202 0202 0202 0202 1010 1010     ................
60107024:	0020 0000 0000 0000 0000 0000 0000 0000      ...............
	...

601070a8 <_global_impure_ptr>:
601070a8:	0014 6200 354c 0000 364c 0000 304c 0000     ...bL5..L6..L0..
601070b8:	314c 0000 334c 0000 344c 0000 324c 0000     L1..L3..L4..L2..
601070c8:	5a53 0000 394b 0000 384b 0000 364b 0000     SZ..K9..K8..K6..
601070d8:	354b 0000 344b 0000 374b 0000 3042 0000     K5..K4..K7..B0..
601070e8:	3242 3744 4244 0000 3452 0000 3152 0000     B2D7DB..R4..R1..
601070f8:	3852 0000 3752 0000 3342 0000 3542 0000     R8..R7..B3..B5..
60107108:	3642 474f 0000 0000 3742 0000 3942 5a4a     B6OG....B7..B9JZ
60107118:	0000 0000 3142 0000 3442 0000 3952 0000     ....B1..B4..R9..
60107128:	4242 0000 534a 0000 425b 434c 0000 0000     BB..JS..[BLC....
60107138:	4857 0000 584a 594a 5244 0000 425b 4643     WH..JXJYDR..[BCF
60107148:	0000 0000 425b 4743 0000 0000 3252 3352     ....[BCG....R2R3
60107158:	3552 3652 4f4a 504a 514a 554a 564a 574a     R5R6JOJPJQJUJVJW
60107168:	0000 0000 425b 4343 0000 0000 425b 4843     ....[BCC....[BCH
60107178:	0000 0000 425b 4443 0000 0000 425b 4543     ....[BCD....[BCE
60107188:	0000 0000 445b 4136 0000 0000 445b 4635     ....[D6A....[D5F
60107198:	0000 0000 2d25 2e2a 732a 0000 510a 6175     ....%-*.*s...Qua
601071a8:	746e 203a 2d25 2e2a 732a 000a 520c 6d61     nt: %-*.*s...Ram
601071b8:	6420 7369 206b 7566 6c6c 640a 7461 2061      disk full.data 
601071c8:	6f6e 2074 7473 726f 6465 0a21 0a0a 0a0a     not stored!.....
601071d8:	7250 7365 2073 6e61 2079 656b 0079 0000     Press any key...
601071e8:	2d25 2e2a 732a 252c 2a2d 2a2e 2c73 2d25     %-*.*s,%-*.*s,%-
601071f8:	2e2a 732a 252c 2a2d 2a2e 0d73 000a 0000     *.*s,%-*.*s.....
60107208:	796d 6966 656c 742e 7478 0000 450c 7272     myfile.txt...Err
60107218:	726f 6320 6572 7461 0a65 6144 6174 6162     or create.Databa
60107228:	6573 430a 646f 3d65 6c25 0a64 0a0a 0a0a     se.Code=%ld.....
60107238:	7250 7365 2073 6e61 2079 656b 0079 0000     Press any key...
60107248:	450c 7272 726f 7720 6972 6574 720a 6365     .Error write.rec
60107258:	726f 0a64 6f43 6564 253d 646c 0a0a 0a0a     ord.Code=%ld....
60107268:	500a 6572 7373 6120 796e 6b20 7965 0000     .Press any key..
60107278:	440c 4c45 5445 0a45 414c 5453 4520 544e     .DELETE.LAST ENT
60107288:	5952 003f 4559 2053 2020 2020 2020 2020     RY?.YES         
60107298:	2020 4f4e 0000 0000 6e41 6520 7272 726f       NO....An error
601072a8:	6f20 6363 7275 6572 2e64 0000 7325 2520      occurred...%s %
601072b8:	646c 0000 6f43 6c75 2064 6f6e 0a74 6564     ld..Could not.de
601072c8:	656c 6574 6c0a 7361 2074 6572 0063 0000     lete.last rec...
601072d8:	7209 2d25 2e2a 732a 2520 3430 646c 252f     .r%-*.*s %04ld/%
601072e8:	3430 646c 7209 0000 4f43 4544 0000 0000     04ld.r..CODE....
601072f8:	450c 7272 726f 6f20 6570 0a6e 6164 6174     .Error open.data
60107308:	6162 6573 3a20 282d 0a2e 6f43 6564 253d     base :-(..Code=%
60107318:	646c 0a0a 0a0a 500a 6572 7373 6120 796e     ld.....Press any
60107328:	6b20 7965 0000 0000 450c 7272 726f 6720      key.....Error g
60107338:	746f 0a6f 6572 6f63 6472 0a2e 6f43 6564     oto.record..Code
60107348:	253d 646c 0a0a 0a0a 500a 6572 7373 6120     =%ld.....Press a
60107358:	796e 6b20 7965 0000 450c 7272 726f 7220     ny key...Error r
60107368:	6165 0a64 6572 6f63 6472 0a2e 6f43 6564     ead.record..Code
60107378:	253d 646c 0a0a 0a0a 500a 6572 7373 6120     =%ld.....Press a
60107388:	796e 6b20 7965 0000 4353 4e41 2820 6d65     ny key..SCAN (em
60107398:	7470 2079 6264 0029 7325 6c25 0064 0000     pty db).%s%ld...
601073a8:	7265 6f72 2072 6572 0a63 0000 6c25 2064     error rec...%ld 
601073b8:	7325 0000 4f54 4154 3a4c 0000 3025 6432     %s..TOTAL:..%02d
601073c8:	253a 3230 3a64 3025 6432 0000 3025 6432     :%02d:%02d..%02d
601073d8:	252f 3230 2f64 3025 6434 0000 440c 7461     /%02d/%04d...Dat
601073e8:	6261 7361 0a65 6f6e 2074 7661 6961 616c     abase.not availa
601073f8:	6c62 0a65 0a0a 0a0a 500a 6572 7373 6120     ble......Press a
60107408:	796e 6b20 7965 0000 7845 7469 0000 0000     ny key..Exit....
60107418:	7249 4144 0000 0000 7243 6461 656c 0000     IrDA....Cradle..
60107428:	6944 6572 7463 6320 6261 656c 0000 0000     Direct cable....
60107438:	3131 3235 3030 0000 3735 3036 0030 0000     115200..57600...
60107448:	3833 3034 0030 0000 3931 3032 0030 0000     38400...19200...
60107458:	3639 3030 0000 0000 3834 3030 0000 0000     9600....4800....
60107468:	3432 3030 0000 0000 6f4e 656e 0000 0000     2400....None....
60107478:	7645 6e65 0000 0000 644f 0064 2037 6164     Even....Odd.7 da
60107488:	6174 6962 7374 0000 2038 6164 6174 6962     tabits..8 databi
60107498:	7374 0000 2031 7473 706f 6962 0074 0000     ts..1 stopbit...
601074a8:	2032 7473 706f 6962 7374 0000 6142 6475     2 stopbits..Baud
601074b8:	6172 6574 0000 0000 6150 6972 7974 0000     rate....Parity..
601074c8:	6144 6174 6962 7374 0000 0000 7453 706f     Databits....Stop
601074d8:	6962 7374 0000 0000 6f4e 7020 6f72 6f74     bits....No proto
601074e8:	6f63 006c 654e 4f74 7020 6f72 6f74 6f63     col.NetO protoco
601074f8:	006c 0000 7209 2020 2020 4843 4e41 4547     l....r    CHANGE
60107508:	2020 2020 7209 200a 2020 4f43 544e 4152         .r.   CONTRA
60107518:	5453 0a0a 0a0a 0000 3151 203a 6144 6b72     ST......Q1: Dark
60107528:	7265 510a 3a32 4c20 6769 7468 7265 0000     er.Q2: Lighter..
60107538:	5055 2043 2020 2020 2020 2020 2020 0020     UPC            .
60107548:	4145 204e 2020 2020 2020 2020 2020 0020     EAN            .
60107558:	6f43 6564 3320 2039 2020 2020 2020 0020     Code 39        .
60107568:	6f43 6164 6162 2072 2020 2020 2020 0020     Codabar        .
60107578:	6e49 7564 7473 202e 6f32 3566 2020 0020     Indust. 2of5   .
60107588:	6e49 6574 6c72 202e 6f32 3566 2020 0020     Interl. 2of5   .
60107598:	2d53 6f43 6564 2020 2020 2020 2020 0020     S-Code         .
601075a8:	614d 7274 7869 3220 666f 2035 2020 0020     Matrix 2of5    .
601075b8:	6843 6e69 7365 2065 6f50 7473 2020 0020     Chinese Post   .
601075c8:	4149 4154 4320 646f 2065 2020 2020 0020     IATA Code      .
601075d8:	534d 2049 2020 2020 2020 2020 2020 0020     MSI            .
601075e8:	6554 656c 6570 206e 2020 2020 2020 0020     Telepen        .
601075f8:	4b55 502f 656c 7373 7965 2020 2020 0020     UK/Plessey     .
60107608:	6f43 6564 3120 3832 2020 2020 2020 0020     Code 128       .
60107618:	6f43 6564 3920 2033 2020 2020 2020 0020     Code 93        .
60107628:	6f43 6564 3120 2031 2020 2020 2020 0020     Code 11        .
60107638:	6f4b 6572 6e61 5020 736f 2074 2020 0020     Korean Post    .
60107648:	5352 2053 2020 2020 2020 2020 2020 0020     RSS            .
60107658:	4450 3446 3731 2020 2020 2020 2020 0020     PDF417         .
60107668:	694d 7263 506f 4644 3134 2037 2020 0020     MicroPDF417    .
60107678:	6c41 206c 6441 2d64 6e4f 2073 2020 0020     All Add-Ons    .
60107688:	4d0c 4d45 524f 2059 454c 5446 0a3a 6c25     .MEMORY LEFT:.%l
60107698:	2064 7942 6574 0a73 0a0a 0a0a 500a 6572     d Bytes......Pre
601076a8:	7373 6120 796e 6b20 7965 0000 6f43 206d     ss any key..Com 
601076b8:	6f50 7472 0000 0000 7250 746f 636f 6c6f     Port....Protocol
601076c8:	0000 0000 6944 7073 616c 0079 6142 6372     ....Display.Barc
601076d8:	646f 7365 0000 0000 654d 6f6d 7972 0000     odes....Memory..
601076e8:	440c 6c65 7465 0a65 6144 6174 6162 6573     .Delete.Database
601076f8:	0a3f 0a0a 0a0a 455b 544e 5245 205d 203d     ?.....[ENTER] = 
60107708:	4559 0a53 435b 454c 5241 205d 203d 4f4e     YES.[CLEAR] = NO
60107718:	0000 0000 450c 7272 726f 6f20 6570 0a6e     .....Error open.
60107728:	4f43 204d 6f70 7472 0a0a 0a0a 0a0a 7250     COM port......Pr
60107738:	7365 2073 6e61 2079 656b 0079 540c 6172     ess any key..Tra
60107748:	736e 696d 2074 6164 6174 0000 3231 3433     nsmit data..1234
60107758:	3635 0000 450c 7272 726f 4e20 7465 0a4f     56...Error NetO.
60107768:	6f43 6564 253d 0a64 0a0a 0a0a 500a 6572     Code=%d......Pre
60107778:	7373 6120 796e 6b20 7965 0000 450c 7272     ss any key...Err
60107788:	726f 6f20 6570 0a6e 6164 6174 6162 6573     or open.database
60107798:	0a2e 6f43 6564 253d 646c 0a0a 0a0a 500a     ..Code=%ld.....P
601077a8:	6572 7373 6120 796e 6b20 7965 0000 0000     ress any key....
601077b8:	6553 646e 2520 3430 646c 252f 3430 646c     Send %04ld/%04ld
601077c8:	0000 0000 450c 7272 726f 640a 7461 6261     .....Error.datab
601077d8:	7361 2e65 430a 646f 3d65 6c25 0a64 0a0a     ase..Code=%ld...
601077e8:	0a0a 7250 7365 2073 6e61 2079 656b 0079     ..Press any key.
601077f8:	090c 2072 6143 7373 7661 5361 6163 206e     ..r CassavaScan 
60107808:	7209 530a 666f 7774 7261 0a65 6556 7372     .r.Software.Vers
60107818:	6f69 206e 0023 0000 250a 2573 2573 0a73     ion #....%s%s%s.
60107828:	500a 6572 7373 6120 796e 6b20 7965 0000     .Press any key..
60107838:	3033 3239 2d34 0032 280a 2963 3220 3130     30924-2..(c) 201
60107848:	2033 754c 616b 0073 450c 7478 6172 614c     3 Lukas..ExtraLa
60107858:	6772 0a65 3031 6320 6168 7372 2a20 3520     rge.10 chars * 5
60107868:	6c20 6e69 7365 0000 614c 6772 2065 6f46      lines..Large Fo
60107878:	746e 310a 2034 6863 7261 2073 202a 2038     nt.14 chars * 8 
60107888:	696c 656e 0073 0000 654d 6964 6d75 4620     lines...Medium F
60107898:	6e6f 0a74 3831 6320 6168 7372 2a20 3120     ont.18 chars * 1
601078a8:	2030 696c 656e 0073 6d53 6c61 206c 6f46     0 lines.Small Fo
601078b8:	746e 310a 2034 6863 7261 2073 202a 3631     nt.14 chars * 16
601078c8:	6c20 6e69 7365 0000 6954 796e 4620 6e6f      lines..Tiny Fon
601078d8:	0a74 3831 6320 6168 7372 2a20 3220 2031     t.18 chars * 21 
601078e8:	696c 656e 0073 0000 2b77 0000 7325 252c     lines...w+..%s,%
601078f8:	6434 252c 2e37 6632 0a0d 0000 6552 6f63     4d,%7.2f....Reco
60107908:	6472 2320 0031 0000 6552 6f63 6472 2320     rd #1...Record #
60107918:	0032 0000 6353 6e61 4c20 6261 6c65 0073     2...Scan Labels.
60107928:	6353 6f72 6c6c 4420 6142 6573 0000 0000     Scroll DBase....
60107938:	7254 6e61 6d73 7469 4420 7461 0061 0000     Transmit Data...
60107948:	6544 656c 6574 4420 6142 6573 0000 0000     Delete DBase....
60107958:	7953 7473 6d65 4d20 6e65 0075 6853 776f     System Menu.Show
60107968:	6620 6e6f 7374 0000 6556 7372 6f69 006e      fonts..Version.
60107978:	2a25 2a2e 0073 0000 002d 0000 6325 2d25     %*.*s...-...%c%-
60107988:	2e2a 732a 0020 0000 2520 2a2d 2a2e 2573     *.*s ... %-*.*s%
60107998:	0063 0000 6325 2d25 2e2a 732a 6325 0000     c...%c%-*.*s%c..
601079a8:	7209 2a25 2064 2d25 2e2a 732a 0920 0072     .r%*d %-*.*s .r.
601079b8:	2a25 2064 2d25 2e2a 732a 0020 7209 2a25     %*d %-*.*s ..r%*
601079c8:	2564 2563 2a2d 2a2e 2073 7209 0000 0000     d%c%-*.*s .r....
601079d8:	2a25 2564 2563 2a2d 2a2e 2073 0000 0000     %*d%c%-*.*s ....
601079e8:	6425 0000 2a25 2a2e 2573 2563 322d 0064     %d..%*.*s%c%-2d.
601079f8:	0043                                        C.
